
rv32mi/auipc.o:     file format elf32-littleriscv


Disassembly of section .text:

00001000 <_start>:
    1000:	00000093          	addi	x1,x0,0
    1004:	00000113          	addi	x2,x0,0
    1008:	00000193          	addi	x3,x0,0
    100c:	00000213          	addi	x4,x0,0
    1010:	00000293          	addi	x5,x0,0
    1014:	00000313          	addi	x6,x0,0
    1018:	00000393          	addi	x7,x0,0
    101c:	00000413          	addi	x8,x0,0
    1020:	00000493          	addi	x9,x0,0
    1024:	00000513          	addi	x10,x0,0
    1028:	00000593          	addi	x11,x0,0
    102c:	00000613          	addi	x12,x0,0
    1030:	00000693          	addi	x13,x0,0
    1034:	00000713          	addi	x14,x0,0
    1038:	00000793          	addi	x15,x0,0
    103c:	00000813          	addi	x16,x0,0
    1040:	00000893          	addi	x17,x0,0
    1044:	00000913          	addi	x18,x0,0
    1048:	00000993          	addi	x19,x0,0
    104c:	00000a13          	addi	x20,x0,0
    1050:	00000a93          	addi	x21,x0,0
    1054:	00000b13          	addi	x22,x0,0
    1058:	00000b93          	addi	x23,x0,0
    105c:	00000c13          	addi	x24,x0,0
    1060:	00000c93          	addi	x25,x0,0
    1064:	00000d13          	addi	x26,x0,0
    1068:	00000d93          	addi	x27,x0,0
    106c:	00000e13          	addi	x28,x0,0
    1070:	00000e93          	addi	x29,x0,0
    1074:	00000f13          	addi	x30,x0,0
    1078:	00000f93          	addi	x31,x0,0
    107c:	00000193          	addi	x3,x0,0
    1080:	00000413          	addi	x8,x0,0

00001084 <test_2>:
    1084:	00000013          	addi	x0,x0,0
    1088:	00002517          	auipc	x10,0x2
    108c:	71c50513          	addi	x10,x10,1820 # 37a4 <_end+0x26c0>
    1090:	004005ef          	jal	x11,1094 <test_2+0x10>
    1094:	40b50533          	sub	x10,x10,x11
    1098:	000023b7          	lui	x7,0x2
    109c:	71038393          	addi	x7,x7,1808 # 2710 <_end+0x162c>
    10a0:	00200193          	addi	x3,x0,2
    10a4:	02751463          	bne	x10,x7,10cc <fail>

000010a8 <test_3>:
    10a8:	ffffe517          	auipc	x10,0xffffe
    10ac:	8fc50513          	addi	x10,x10,-1796 # ffffe9a4 <_end+0xffffd8c0>
    10b0:	004005ef          	jal	x11,10b4 <test_3+0xc>
    10b4:	40b50533          	sub	x10,x10,x11
    10b8:	ffffe3b7          	lui	x7,0xffffe
    10bc:	8f038393          	addi	x7,x7,-1808 # ffffd8f0 <_end+0xffffc80c>
    10c0:	00300193          	addi	x3,x0,3
    10c4:	00751463          	bne	x10,x7,10cc <fail>
    10c8:	00301863          	bne	x0,x3,10d8 <pass>

000010cc <fail>:
    10cc:	00000193          	addi	x3,x0,0
    10d0:	00100413          	addi	x8,x0,1
    10d4:	00008067          	jalr	x0,0(x1)

000010d8 <pass>:
    10d8:	00100193          	addi	x3,x0,1
    10dc:	00100413          	addi	x8,x0,1
    10e0:	00008067          	jalr	x0,0(x1)

000010e4 <_end>:
    10e4:	00000013          	addi	x0,x0,0
    10e8:	00000013          	addi	x0,x0,0
