
rv32mi/bge.o:     file format elf32-littleriscv


Disassembly of section .text:

00001000 <_start>:
    1000:	00000093          	addi	x1,x0,0
    1004:	00000113          	addi	x2,x0,0
    1008:	00000193          	addi	x3,x0,0
    100c:	00000213          	addi	x4,x0,0
    1010:	00000293          	addi	x5,x0,0
    1014:	00000313          	addi	x6,x0,0
    1018:	00000393          	addi	x7,x0,0
    101c:	00000413          	addi	x8,x0,0
    1020:	00000493          	addi	x9,x0,0
    1024:	00000513          	addi	x10,x0,0
    1028:	00000593          	addi	x11,x0,0
    102c:	00000613          	addi	x12,x0,0
    1030:	00000693          	addi	x13,x0,0
    1034:	00000713          	addi	x14,x0,0
    1038:	00000793          	addi	x15,x0,0
    103c:	00000813          	addi	x16,x0,0
    1040:	00000893          	addi	x17,x0,0
    1044:	00000913          	addi	x18,x0,0
    1048:	00000993          	addi	x19,x0,0
    104c:	00000a13          	addi	x20,x0,0
    1050:	00000a93          	addi	x21,x0,0
    1054:	00000b13          	addi	x22,x0,0
    1058:	00000b93          	addi	x23,x0,0
    105c:	00000c13          	addi	x24,x0,0
    1060:	00000c93          	addi	x25,x0,0
    1064:	00000d13          	addi	x26,x0,0
    1068:	00000d93          	addi	x27,x0,0
    106c:	00000e13          	addi	x28,x0,0
    1070:	00000e93          	addi	x29,x0,0
    1074:	00000f13          	addi	x30,x0,0
    1078:	00000f93          	addi	x31,x0,0
    107c:	00000193          	addi	x3,x0,0
    1080:	00000413          	addi	x8,x0,0

00001084 <test_2>:
    1084:	00200193          	addi	x3,x0,2
    1088:	00000093          	addi	x1,x0,0
    108c:	00000113          	addi	x2,x0,0
    1090:	0020d663          	bge	x1,x2,109c <test_2+0x18>
    1094:	30301863          	bne	x0,x3,13a4 <fail>
    1098:	00301663          	bne	x0,x3,10a4 <test_3>
    109c:	fe20dee3          	bge	x1,x2,1098 <test_2+0x14>
    10a0:	30301263          	bne	x0,x3,13a4 <fail>

000010a4 <test_3>:
    10a4:	00300193          	addi	x3,x0,3
    10a8:	00100093          	addi	x1,x0,1
    10ac:	00100113          	addi	x2,x0,1
    10b0:	0020d663          	bge	x1,x2,10bc <test_3+0x18>
    10b4:	2e301863          	bne	x0,x3,13a4 <fail>
    10b8:	00301663          	bne	x0,x3,10c4 <test_4>
    10bc:	fe20dee3          	bge	x1,x2,10b8 <test_3+0x14>
    10c0:	2e301263          	bne	x0,x3,13a4 <fail>

000010c4 <test_4>:
    10c4:	00400193          	addi	x3,x0,4
    10c8:	fff00093          	addi	x1,x0,-1
    10cc:	fff00113          	addi	x2,x0,-1
    10d0:	0020d663          	bge	x1,x2,10dc <test_4+0x18>
    10d4:	2c301863          	bne	x0,x3,13a4 <fail>
    10d8:	00301663          	bne	x0,x3,10e4 <test_5>
    10dc:	fe20dee3          	bge	x1,x2,10d8 <test_4+0x14>
    10e0:	2c301263          	bne	x0,x3,13a4 <fail>

000010e4 <test_5>:
    10e4:	00500193          	addi	x3,x0,5
    10e8:	00100093          	addi	x1,x0,1
    10ec:	00000113          	addi	x2,x0,0
    10f0:	0020d663          	bge	x1,x2,10fc <test_5+0x18>
    10f4:	2a301863          	bne	x0,x3,13a4 <fail>
    10f8:	00301663          	bne	x0,x3,1104 <test_6>
    10fc:	fe20dee3          	bge	x1,x2,10f8 <test_5+0x14>
    1100:	2a301263          	bne	x0,x3,13a4 <fail>

00001104 <test_6>:
    1104:	00600193          	addi	x3,x0,6
    1108:	00100093          	addi	x1,x0,1
    110c:	fff00113          	addi	x2,x0,-1
    1110:	0020d663          	bge	x1,x2,111c <test_6+0x18>
    1114:	28301863          	bne	x0,x3,13a4 <fail>
    1118:	00301663          	bne	x0,x3,1124 <test_7>
    111c:	fe20dee3          	bge	x1,x2,1118 <test_6+0x14>
    1120:	28301263          	bne	x0,x3,13a4 <fail>

00001124 <test_7>:
    1124:	00700193          	addi	x3,x0,7
    1128:	fff00093          	addi	x1,x0,-1
    112c:	ffe00113          	addi	x2,x0,-2
    1130:	0020d663          	bge	x1,x2,113c <test_7+0x18>
    1134:	26301863          	bne	x0,x3,13a4 <fail>
    1138:	00301663          	bne	x0,x3,1144 <test_8>
    113c:	fe20dee3          	bge	x1,x2,1138 <test_7+0x14>
    1140:	26301263          	bne	x0,x3,13a4 <fail>

00001144 <test_8>:
    1144:	00800193          	addi	x3,x0,8
    1148:	00000093          	addi	x1,x0,0
    114c:	00100113          	addi	x2,x0,1
    1150:	0020d463          	bge	x1,x2,1158 <test_8+0x14>
    1154:	00301463          	bne	x0,x3,115c <test_8+0x18>
    1158:	24301663          	bne	x0,x3,13a4 <fail>
    115c:	fe20dee3          	bge	x1,x2,1158 <test_8+0x14>

00001160 <test_9>:
    1160:	00900193          	addi	x3,x0,9
    1164:	fff00093          	addi	x1,x0,-1
    1168:	00100113          	addi	x2,x0,1
    116c:	0020d463          	bge	x1,x2,1174 <test_9+0x14>
    1170:	00301463          	bne	x0,x3,1178 <test_9+0x18>
    1174:	22301863          	bne	x0,x3,13a4 <fail>
    1178:	fe20dee3          	bge	x1,x2,1174 <test_9+0x14>

0000117c <test_10>:
    117c:	00a00193          	addi	x3,x0,10
    1180:	ffe00093          	addi	x1,x0,-2
    1184:	fff00113          	addi	x2,x0,-1
    1188:	0020d463          	bge	x1,x2,1190 <test_10+0x14>
    118c:	00301463          	bne	x0,x3,1194 <test_10+0x18>
    1190:	20301a63          	bne	x0,x3,13a4 <fail>
    1194:	fe20dee3          	bge	x1,x2,1190 <test_10+0x14>

00001198 <test_11>:
    1198:	00b00193          	addi	x3,x0,11
    119c:	ffe00093          	addi	x1,x0,-2
    11a0:	00100113          	addi	x2,x0,1
    11a4:	0020d463          	bge	x1,x2,11ac <test_11+0x14>
    11a8:	00301463          	bne	x0,x3,11b0 <test_11+0x18>
    11ac:	1e301c63          	bne	x0,x3,13a4 <fail>
    11b0:	fe20dee3          	bge	x1,x2,11ac <test_11+0x14>

000011b4 <test_12>:
    11b4:	00c00193          	addi	x3,x0,12
    11b8:	00000213          	addi	x4,x0,0
    11bc:	fff00093          	addi	x1,x0,-1
    11c0:	00000113          	addi	x2,x0,0
    11c4:	1e20d063          	bge	x1,x2,13a4 <fail>
    11c8:	00120213          	addi	x4,x4,1 # 1 <begin_signature+0x1>
    11cc:	00200293          	addi	x5,x0,2
    11d0:	fe5216e3          	bne	x4,x5,11bc <test_12+0x8>

000011d4 <test_13>:
    11d4:	00d00193          	addi	x3,x0,13
    11d8:	00000213          	addi	x4,x0,0
    11dc:	fff00093          	addi	x1,x0,-1
    11e0:	00000113          	addi	x2,x0,0
    11e4:	00000013          	addi	x0,x0,0
    11e8:	1a20de63          	bge	x1,x2,13a4 <fail>
    11ec:	00120213          	addi	x4,x4,1 # 1 <begin_signature+0x1>
    11f0:	00200293          	addi	x5,x0,2
    11f4:	fe5214e3          	bne	x4,x5,11dc <test_13+0x8>

000011f8 <test_14>:
    11f8:	00e00193          	addi	x3,x0,14
    11fc:	00000213          	addi	x4,x0,0
    1200:	fff00093          	addi	x1,x0,-1
    1204:	00000113          	addi	x2,x0,0
    1208:	00000013          	addi	x0,x0,0
    120c:	00000013          	addi	x0,x0,0
    1210:	1820da63          	bge	x1,x2,13a4 <fail>
    1214:	00120213          	addi	x4,x4,1 # 1 <begin_signature+0x1>
    1218:	00200293          	addi	x5,x0,2
    121c:	fe5212e3          	bne	x4,x5,1200 <test_14+0x8>

00001220 <test_15>:
    1220:	00f00193          	addi	x3,x0,15
    1224:	00000213          	addi	x4,x0,0
    1228:	fff00093          	addi	x1,x0,-1
    122c:	00000013          	addi	x0,x0,0
    1230:	00000113          	addi	x2,x0,0
    1234:	1620d863          	bge	x1,x2,13a4 <fail>
    1238:	00120213          	addi	x4,x4,1 # 1 <begin_signature+0x1>
    123c:	00200293          	addi	x5,x0,2
    1240:	fe5214e3          	bne	x4,x5,1228 <test_15+0x8>

00001244 <test_16>:
    1244:	01000193          	addi	x3,x0,16
    1248:	00000213          	addi	x4,x0,0
    124c:	fff00093          	addi	x1,x0,-1
    1250:	00000013          	addi	x0,x0,0
    1254:	00000113          	addi	x2,x0,0
    1258:	00000013          	addi	x0,x0,0
    125c:	1420d463          	bge	x1,x2,13a4 <fail>
    1260:	00120213          	addi	x4,x4,1 # 1 <begin_signature+0x1>
    1264:	00200293          	addi	x5,x0,2
    1268:	fe5212e3          	bne	x4,x5,124c <test_16+0x8>

0000126c <test_17>:
    126c:	01100193          	addi	x3,x0,17
    1270:	00000213          	addi	x4,x0,0
    1274:	fff00093          	addi	x1,x0,-1
    1278:	00000013          	addi	x0,x0,0
    127c:	00000013          	addi	x0,x0,0
    1280:	00000113          	addi	x2,x0,0
    1284:	1220d063          	bge	x1,x2,13a4 <fail>
    1288:	00120213          	addi	x4,x4,1 # 1 <begin_signature+0x1>
    128c:	00200293          	addi	x5,x0,2
    1290:	fe5212e3          	bne	x4,x5,1274 <test_17+0x8>

00001294 <test_18>:
    1294:	01200193          	addi	x3,x0,18
    1298:	00000213          	addi	x4,x0,0
    129c:	fff00093          	addi	x1,x0,-1
    12a0:	00000113          	addi	x2,x0,0
    12a4:	1020d063          	bge	x1,x2,13a4 <fail>
    12a8:	00120213          	addi	x4,x4,1 # 1 <begin_signature+0x1>
    12ac:	00200293          	addi	x5,x0,2
    12b0:	fe5216e3          	bne	x4,x5,129c <test_18+0x8>

000012b4 <test_19>:
    12b4:	01300193          	addi	x3,x0,19
    12b8:	00000213          	addi	x4,x0,0
    12bc:	fff00093          	addi	x1,x0,-1
    12c0:	00000113          	addi	x2,x0,0
    12c4:	00000013          	addi	x0,x0,0
    12c8:	0c20de63          	bge	x1,x2,13a4 <fail>
    12cc:	00120213          	addi	x4,x4,1 # 1 <begin_signature+0x1>
    12d0:	00200293          	addi	x5,x0,2
    12d4:	fe5214e3          	bne	x4,x5,12bc <test_19+0x8>

000012d8 <test_20>:
    12d8:	01400193          	addi	x3,x0,20
    12dc:	00000213          	addi	x4,x0,0
    12e0:	fff00093          	addi	x1,x0,-1
    12e4:	00000113          	addi	x2,x0,0
    12e8:	00000013          	addi	x0,x0,0
    12ec:	00000013          	addi	x0,x0,0
    12f0:	0a20da63          	bge	x1,x2,13a4 <fail>
    12f4:	00120213          	addi	x4,x4,1 # 1 <begin_signature+0x1>
    12f8:	00200293          	addi	x5,x0,2
    12fc:	fe5212e3          	bne	x4,x5,12e0 <test_20+0x8>

00001300 <test_21>:
    1300:	01500193          	addi	x3,x0,21
    1304:	00000213          	addi	x4,x0,0
    1308:	fff00093          	addi	x1,x0,-1
    130c:	00000013          	addi	x0,x0,0
    1310:	00000113          	addi	x2,x0,0
    1314:	0820d863          	bge	x1,x2,13a4 <fail>
    1318:	00120213          	addi	x4,x4,1 # 1 <begin_signature+0x1>
    131c:	00200293          	addi	x5,x0,2
    1320:	fe5214e3          	bne	x4,x5,1308 <test_21+0x8>

00001324 <test_22>:
    1324:	01600193          	addi	x3,x0,22
    1328:	00000213          	addi	x4,x0,0
    132c:	fff00093          	addi	x1,x0,-1
    1330:	00000013          	addi	x0,x0,0
    1334:	00000113          	addi	x2,x0,0
    1338:	00000013          	addi	x0,x0,0
    133c:	0620d463          	bge	x1,x2,13a4 <fail>
    1340:	00120213          	addi	x4,x4,1 # 1 <begin_signature+0x1>
    1344:	00200293          	addi	x5,x0,2
    1348:	fe5212e3          	bne	x4,x5,132c <test_22+0x8>

0000134c <test_23>:
    134c:	01700193          	addi	x3,x0,23
    1350:	00000213          	addi	x4,x0,0
    1354:	fff00093          	addi	x1,x0,-1
    1358:	00000013          	addi	x0,x0,0
    135c:	00000013          	addi	x0,x0,0
    1360:	00000113          	addi	x2,x0,0
    1364:	0420d063          	bge	x1,x2,13a4 <fail>
    1368:	00120213          	addi	x4,x4,1 # 1 <begin_signature+0x1>
    136c:	00200293          	addi	x5,x0,2
    1370:	fe5212e3          	bne	x4,x5,1354 <test_23+0x8>

00001374 <test_24>:
    1374:	00100093          	addi	x1,x0,1
    1378:	0000da63          	bge	x1,x0,138c <test_24+0x18>
    137c:	00108093          	addi	x1,x1,1
    1380:	00108093          	addi	x1,x1,1
    1384:	00108093          	addi	x1,x1,1
    1388:	00108093          	addi	x1,x1,1
    138c:	00108093          	addi	x1,x1,1
    1390:	00108093          	addi	x1,x1,1
    1394:	00300393          	addi	x7,x0,3
    1398:	01800193          	addi	x3,x0,24
    139c:	00709463          	bne	x1,x7,13a4 <fail>
    13a0:	00301863          	bne	x0,x3,13b0 <pass>

000013a4 <fail>:
    13a4:	00000193          	addi	x3,x0,0
    13a8:	00100413          	addi	x8,x0,1
    13ac:	00008067          	jalr	x0,0(x1)

000013b0 <pass>:
    13b0:	00100193          	addi	x3,x0,1
    13b4:	00100413          	addi	x8,x0,1
    13b8:	00008067          	jalr	x0,0(x1)

000013bc <_end>:
    13bc:	00000013          	addi	x0,x0,0
