
rv32mi/bypass.o:     file format elf32-littleriscv


Disassembly of section .text:

00001000 <_start>:
    1000:	00000093          	addi	x1,x0,0
    1004:	00000113          	addi	x2,x0,0
    1008:	00000193          	addi	x3,x0,0
    100c:	00000213          	addi	x4,x0,0
    1010:	00000293          	addi	x5,x0,0
    1014:	00000313          	addi	x6,x0,0
    1018:	00000393          	addi	x7,x0,0
    101c:	00000413          	addi	x8,x0,0
    1020:	00000493          	addi	x9,x0,0
    1024:	00000513          	addi	x10,x0,0
    1028:	00000593          	addi	x11,x0,0
    102c:	00000613          	addi	x12,x0,0
    1030:	00000693          	addi	x13,x0,0
    1034:	00000713          	addi	x14,x0,0
    1038:	00000793          	addi	x15,x0,0
    103c:	00000813          	addi	x16,x0,0
    1040:	00000893          	addi	x17,x0,0
    1044:	00000913          	addi	x18,x0,0
    1048:	00000993          	addi	x19,x0,0
    104c:	00000a13          	addi	x20,x0,0
    1050:	00000a93          	addi	x21,x0,0
    1054:	00000b13          	addi	x22,x0,0
    1058:	00000b93          	addi	x23,x0,0
    105c:	00000c13          	addi	x24,x0,0
    1060:	00000c93          	addi	x25,x0,0
    1064:	00000d13          	addi	x26,x0,0
    1068:	00000d93          	addi	x27,x0,0
    106c:	00000e13          	addi	x28,x0,0
    1070:	00000e93          	addi	x29,x0,0
    1074:	00000f13          	addi	x30,x0,0
    1078:	00000f93          	addi	x31,x0,0
    107c:	00000193          	addi	x3,x0,0
    1080:	00000413          	addi	x8,x0,0

00001084 <test_2>:
    1084:	00000213          	addi	x4,x0,0
    1088:	00d00093          	addi	x1,x0,13
    108c:	00b08713          	addi	x14,x1,11
    1090:	00070313          	addi	x6,x14,0
    1094:	00120213          	addi	x4,x4,1 # 1 <begin_signature+0x1>
    1098:	00200293          	addi	x5,x0,2
    109c:	fe5216e3          	bne	x4,x5,1088 <test_2+0x4>
    10a0:	01800393          	addi	x7,x0,24
    10a4:	00200193          	addi	x3,x0,2
    10a8:	747310e3          	bne	x6,x7,1fe8 <fail>

000010ac <test_3>:
    10ac:	00000213          	addi	x4,x0,0
    10b0:	00d00093          	addi	x1,x0,13
    10b4:	00a08713          	addi	x14,x1,10
    10b8:	00000013          	addi	x0,x0,0
    10bc:	00070313          	addi	x6,x14,0
    10c0:	00120213          	addi	x4,x4,1 # 1 <begin_signature+0x1>
    10c4:	00200293          	addi	x5,x0,2
    10c8:	fe5214e3          	bne	x4,x5,10b0 <test_3+0x4>
    10cc:	01700393          	addi	x7,x0,23
    10d0:	00300193          	addi	x3,x0,3
    10d4:	70731ae3          	bne	x6,x7,1fe8 <fail>

000010d8 <test_4>:
    10d8:	00000213          	addi	x4,x0,0
    10dc:	00d00093          	addi	x1,x0,13
    10e0:	00908713          	addi	x14,x1,9
    10e4:	00000013          	addi	x0,x0,0
    10e8:	00000013          	addi	x0,x0,0
    10ec:	00070313          	addi	x6,x14,0
    10f0:	00120213          	addi	x4,x4,1 # 1 <begin_signature+0x1>
    10f4:	00200293          	addi	x5,x0,2
    10f8:	fe5212e3          	bne	x4,x5,10dc <test_4+0x4>
    10fc:	01600393          	addi	x7,x0,22
    1100:	00400193          	addi	x3,x0,4
    1104:	6e7312e3          	bne	x6,x7,1fe8 <fail>

00001108 <test_5>:
    1108:	00000213          	addi	x4,x0,0
    110c:	00d00093          	addi	x1,x0,13
    1110:	00b08713          	addi	x14,x1,11
    1114:	00120213          	addi	x4,x4,1 # 1 <begin_signature+0x1>
    1118:	00200293          	addi	x5,x0,2
    111c:	fe5218e3          	bne	x4,x5,110c <test_5+0x4>
    1120:	01800393          	addi	x7,x0,24
    1124:	00500193          	addi	x3,x0,5
    1128:	6c7710e3          	bne	x14,x7,1fe8 <fail>

0000112c <test_6>:
    112c:	00000213          	addi	x4,x0,0
    1130:	00d00093          	addi	x1,x0,13
    1134:	00000013          	addi	x0,x0,0
    1138:	00a08713          	addi	x14,x1,10
    113c:	00120213          	addi	x4,x4,1 # 1 <begin_signature+0x1>
    1140:	00200293          	addi	x5,x0,2
    1144:	fe5216e3          	bne	x4,x5,1130 <test_6+0x4>
    1148:	01700393          	addi	x7,x0,23
    114c:	00600193          	addi	x3,x0,6
    1150:	68771ce3          	bne	x14,x7,1fe8 <fail>

00001154 <test_7>:
    1154:	00000213          	addi	x4,x0,0
    1158:	00d00093          	addi	x1,x0,13
    115c:	00000013          	addi	x0,x0,0
    1160:	00000013          	addi	x0,x0,0
    1164:	00908713          	addi	x14,x1,9
    1168:	00120213          	addi	x4,x4,1 # 1 <begin_signature+0x1>
    116c:	00200293          	addi	x5,x0,2
    1170:	fe5214e3          	bne	x4,x5,1158 <test_7+0x4>
    1174:	01600393          	addi	x7,x0,22
    1178:	00700193          	addi	x3,x0,7
    117c:	667716e3          	bne	x14,x7,1fe8 <fail>

00001180 <test_8>:
    1180:	00000213          	addi	x4,x0,0
    1184:	00d00093          	addi	x1,x0,13
    1188:	00b00113          	addi	x2,x0,11
    118c:	00208733          	add	x14,x1,x2
    1190:	00070313          	addi	x6,x14,0
    1194:	00120213          	addi	x4,x4,1 # 1 <begin_signature+0x1>
    1198:	00200293          	addi	x5,x0,2
    119c:	fe5214e3          	bne	x4,x5,1184 <test_8+0x4>
    11a0:	01800393          	addi	x7,x0,24
    11a4:	00800193          	addi	x3,x0,8
    11a8:	647310e3          	bne	x6,x7,1fe8 <fail>

000011ac <test_9>:
    11ac:	00000213          	addi	x4,x0,0
    11b0:	00e00093          	addi	x1,x0,14
    11b4:	00b00113          	addi	x2,x0,11
    11b8:	00208733          	add	x14,x1,x2
    11bc:	00000013          	addi	x0,x0,0
    11c0:	00070313          	addi	x6,x14,0
    11c4:	00120213          	addi	x4,x4,1 # 1 <begin_signature+0x1>
    11c8:	00200293          	addi	x5,x0,2
    11cc:	fe5212e3          	bne	x4,x5,11b0 <test_9+0x4>
    11d0:	01900393          	addi	x7,x0,25
    11d4:	00900193          	addi	x3,x0,9
    11d8:	607318e3          	bne	x6,x7,1fe8 <fail>

000011dc <test_10>:
    11dc:	00000213          	addi	x4,x0,0
    11e0:	00f00093          	addi	x1,x0,15
    11e4:	00b00113          	addi	x2,x0,11
    11e8:	00208733          	add	x14,x1,x2
    11ec:	00000013          	addi	x0,x0,0
    11f0:	00000013          	addi	x0,x0,0
    11f4:	00070313          	addi	x6,x14,0
    11f8:	00120213          	addi	x4,x4,1 # 1 <begin_signature+0x1>
    11fc:	00200293          	addi	x5,x0,2
    1200:	fe5210e3          	bne	x4,x5,11e0 <test_10+0x4>
    1204:	01a00393          	addi	x7,x0,26
    1208:	00a00193          	addi	x3,x0,10
    120c:	5c731ee3          	bne	x6,x7,1fe8 <fail>

00001210 <test_11>:
    1210:	00b00193          	addi	x3,x0,11
    1214:	00000213          	addi	x4,x0,0
    1218:	00000093          	addi	x1,x0,0
    121c:	00000113          	addi	x2,x0,0
    1220:	5c2094e3          	bne	x1,x2,1fe8 <fail>
    1224:	00120213          	addi	x4,x4,1 # 1 <begin_signature+0x1>
    1228:	00200293          	addi	x5,x0,2
    122c:	fe5216e3          	bne	x4,x5,1218 <test_11+0x8>

00001230 <test_12>:
    1230:	00c00193          	addi	x3,x0,12
    1234:	00000213          	addi	x4,x0,0
    1238:	00000093          	addi	x1,x0,0
    123c:	00000113          	addi	x2,x0,0
    1240:	00000013          	addi	x0,x0,0
    1244:	5a2092e3          	bne	x1,x2,1fe8 <fail>
    1248:	00120213          	addi	x4,x4,1 # 1 <begin_signature+0x1>
    124c:	00200293          	addi	x5,x0,2
    1250:	fe5214e3          	bne	x4,x5,1238 <test_12+0x8>

00001254 <test_13>:
    1254:	00d00193          	addi	x3,x0,13
    1258:	00000213          	addi	x4,x0,0
    125c:	00000093          	addi	x1,x0,0
    1260:	00000113          	addi	x2,x0,0
    1264:	00000013          	addi	x0,x0,0
    1268:	00000013          	addi	x0,x0,0
    126c:	56209ee3          	bne	x1,x2,1fe8 <fail>
    1270:	00120213          	addi	x4,x4,1 # 1 <begin_signature+0x1>
    1274:	00200293          	addi	x5,x0,2
    1278:	fe5212e3          	bne	x4,x5,125c <test_13+0x8>

0000127c <test_14>:
    127c:	00e00193          	addi	x3,x0,14
    1280:	00000213          	addi	x4,x0,0
    1284:	00000093          	addi	x1,x0,0
    1288:	00000013          	addi	x0,x0,0
    128c:	00000113          	addi	x2,x0,0
    1290:	54209ce3          	bne	x1,x2,1fe8 <fail>
    1294:	00120213          	addi	x4,x4,1 # 1 <begin_signature+0x1>
    1298:	00200293          	addi	x5,x0,2
    129c:	fe5214e3          	bne	x4,x5,1284 <test_14+0x8>

000012a0 <test_15>:
    12a0:	00f00193          	addi	x3,x0,15
    12a4:	00000213          	addi	x4,x0,0
    12a8:	00000093          	addi	x1,x0,0
    12ac:	00000013          	addi	x0,x0,0
    12b0:	00000113          	addi	x2,x0,0
    12b4:	00000013          	addi	x0,x0,0
    12b8:	522098e3          	bne	x1,x2,1fe8 <fail>
    12bc:	00120213          	addi	x4,x4,1 # 1 <begin_signature+0x1>
    12c0:	00200293          	addi	x5,x0,2
    12c4:	fe5212e3          	bne	x4,x5,12a8 <test_15+0x8>

000012c8 <test_16>:
    12c8:	01000193          	addi	x3,x0,16
    12cc:	00000213          	addi	x4,x0,0
    12d0:	00000093          	addi	x1,x0,0
    12d4:	00000013          	addi	x0,x0,0
    12d8:	00000013          	addi	x0,x0,0
    12dc:	00000113          	addi	x2,x0,0
    12e0:	502094e3          	bne	x1,x2,1fe8 <fail>
    12e4:	00120213          	addi	x4,x4,1 # 1 <begin_signature+0x1>
    12e8:	00200293          	addi	x5,x0,2
    12ec:	fe5212e3          	bne	x4,x5,12d0 <test_16+0x8>

000012f0 <test_17>:
    12f0:	01100193          	addi	x3,x0,17
    12f4:	00000213          	addi	x4,x0,0
    12f8:	00000093          	addi	x1,x0,0
    12fc:	00000113          	addi	x2,x0,0
    1300:	4e2094e3          	bne	x1,x2,1fe8 <fail>
    1304:	00120213          	addi	x4,x4,1 # 1 <begin_signature+0x1>
    1308:	00200293          	addi	x5,x0,2
    130c:	fe5216e3          	bne	x4,x5,12f8 <test_17+0x8>

00001310 <test_18>:
    1310:	01200193          	addi	x3,x0,18
    1314:	00000213          	addi	x4,x0,0
    1318:	00000093          	addi	x1,x0,0
    131c:	00000113          	addi	x2,x0,0
    1320:	00000013          	addi	x0,x0,0
    1324:	4c2092e3          	bne	x1,x2,1fe8 <fail>
    1328:	00120213          	addi	x4,x4,1 # 1 <begin_signature+0x1>
    132c:	00200293          	addi	x5,x0,2
    1330:	fe5214e3          	bne	x4,x5,1318 <test_18+0x8>

00001334 <test_19>:
    1334:	01300193          	addi	x3,x0,19
    1338:	00000213          	addi	x4,x0,0
    133c:	00000093          	addi	x1,x0,0
    1340:	00000113          	addi	x2,x0,0
    1344:	00000013          	addi	x0,x0,0
    1348:	00000013          	addi	x0,x0,0
    134c:	48209ee3          	bne	x1,x2,1fe8 <fail>
    1350:	00120213          	addi	x4,x4,1 # 1 <begin_signature+0x1>
    1354:	00200293          	addi	x5,x0,2
    1358:	fe5212e3          	bne	x4,x5,133c <test_19+0x8>

0000135c <test_20>:
    135c:	01400193          	addi	x3,x0,20
    1360:	00000213          	addi	x4,x0,0
    1364:	00000093          	addi	x1,x0,0
    1368:	00000013          	addi	x0,x0,0
    136c:	00000113          	addi	x2,x0,0
    1370:	46209ce3          	bne	x1,x2,1fe8 <fail>
    1374:	00120213          	addi	x4,x4,1 # 1 <begin_signature+0x1>
    1378:	00200293          	addi	x5,x0,2
    137c:	fe5214e3          	bne	x4,x5,1364 <test_20+0x8>

00001380 <test_21>:
    1380:	01500193          	addi	x3,x0,21
    1384:	00000213          	addi	x4,x0,0
    1388:	00000093          	addi	x1,x0,0
    138c:	00000013          	addi	x0,x0,0
    1390:	00000113          	addi	x2,x0,0
    1394:	00000013          	addi	x0,x0,0
    1398:	442098e3          	bne	x1,x2,1fe8 <fail>
    139c:	00120213          	addi	x4,x4,1 # 1 <begin_signature+0x1>
    13a0:	00200293          	addi	x5,x0,2
    13a4:	fe5212e3          	bne	x4,x5,1388 <test_21+0x8>

000013a8 <test_22>:
    13a8:	01600193          	addi	x3,x0,22
    13ac:	00000213          	addi	x4,x0,0
    13b0:	00000093          	addi	x1,x0,0
    13b4:	00000013          	addi	x0,x0,0
    13b8:	00000013          	addi	x0,x0,0
    13bc:	00000113          	addi	x2,x0,0
    13c0:	422094e3          	bne	x1,x2,1fe8 <fail>
    13c4:	00120213          	addi	x4,x4,1 # 1 <begin_signature+0x1>
    13c8:	00200293          	addi	x5,x0,2
    13cc:	fe5212e3          	bne	x4,x5,13b0 <test_22+0x8>

000013d0 <test_23>:
    13d0:	01700193          	addi	x3,x0,23
    13d4:	00000213          	addi	x4,x0,0
    13d8:	00000093          	addi	x1,x0,0
    13dc:	fff00113          	addi	x2,x0,-1
    13e0:	402084e3          	beq	x1,x2,1fe8 <fail>
    13e4:	00120213          	addi	x4,x4,1 # 1 <begin_signature+0x1>
    13e8:	00200293          	addi	x5,x0,2
    13ec:	fe5216e3          	bne	x4,x5,13d8 <test_23+0x8>

000013f0 <test_24>:
    13f0:	01800193          	addi	x3,x0,24
    13f4:	00000213          	addi	x4,x0,0
    13f8:	00000093          	addi	x1,x0,0
    13fc:	fff00113          	addi	x2,x0,-1
    1400:	00000013          	addi	x0,x0,0
    1404:	3e2082e3          	beq	x1,x2,1fe8 <fail>
    1408:	00120213          	addi	x4,x4,1 # 1 <begin_signature+0x1>
    140c:	00200293          	addi	x5,x0,2
    1410:	fe5214e3          	bne	x4,x5,13f8 <test_24+0x8>

00001414 <test_25>:
    1414:	01900193          	addi	x3,x0,25
    1418:	00000213          	addi	x4,x0,0
    141c:	00000093          	addi	x1,x0,0
    1420:	fff00113          	addi	x2,x0,-1
    1424:	00000013          	addi	x0,x0,0
    1428:	00000013          	addi	x0,x0,0
    142c:	3a208ee3          	beq	x1,x2,1fe8 <fail>
    1430:	00120213          	addi	x4,x4,1 # 1 <begin_signature+0x1>
    1434:	00200293          	addi	x5,x0,2
    1438:	fe5212e3          	bne	x4,x5,141c <test_25+0x8>

0000143c <test_26>:
    143c:	01a00193          	addi	x3,x0,26
    1440:	00000213          	addi	x4,x0,0
    1444:	00000093          	addi	x1,x0,0
    1448:	00000013          	addi	x0,x0,0
    144c:	fff00113          	addi	x2,x0,-1
    1450:	38208ce3          	beq	x1,x2,1fe8 <fail>
    1454:	00120213          	addi	x4,x4,1 # 1 <begin_signature+0x1>
    1458:	00200293          	addi	x5,x0,2
    145c:	fe5214e3          	bne	x4,x5,1444 <test_26+0x8>

00001460 <test_27>:
    1460:	01b00193          	addi	x3,x0,27
    1464:	00000213          	addi	x4,x0,0
    1468:	00000093          	addi	x1,x0,0
    146c:	00000013          	addi	x0,x0,0
    1470:	fff00113          	addi	x2,x0,-1
    1474:	00000013          	addi	x0,x0,0
    1478:	362088e3          	beq	x1,x2,1fe8 <fail>
    147c:	00120213          	addi	x4,x4,1 # 1 <begin_signature+0x1>
    1480:	00200293          	addi	x5,x0,2
    1484:	fe5212e3          	bne	x4,x5,1468 <test_27+0x8>

00001488 <test_28>:
    1488:	01c00193          	addi	x3,x0,28
    148c:	00000213          	addi	x4,x0,0
    1490:	00000093          	addi	x1,x0,0
    1494:	00000013          	addi	x0,x0,0
    1498:	00000013          	addi	x0,x0,0
    149c:	fff00113          	addi	x2,x0,-1
    14a0:	342084e3          	beq	x1,x2,1fe8 <fail>
    14a4:	00120213          	addi	x4,x4,1 # 1 <begin_signature+0x1>
    14a8:	00200293          	addi	x5,x0,2
    14ac:	fe5212e3          	bne	x4,x5,1490 <test_28+0x8>

000014b0 <test_29>:
    14b0:	01d00193          	addi	x3,x0,29
    14b4:	00000213          	addi	x4,x0,0
    14b8:	00000093          	addi	x1,x0,0
    14bc:	fff00113          	addi	x2,x0,-1
    14c0:	322084e3          	beq	x1,x2,1fe8 <fail>
    14c4:	00120213          	addi	x4,x4,1 # 1 <begin_signature+0x1>
    14c8:	00200293          	addi	x5,x0,2
    14cc:	fe5216e3          	bne	x4,x5,14b8 <test_29+0x8>

000014d0 <test_30>:
    14d0:	01e00193          	addi	x3,x0,30
    14d4:	00000213          	addi	x4,x0,0
    14d8:	00000093          	addi	x1,x0,0
    14dc:	fff00113          	addi	x2,x0,-1
    14e0:	00000013          	addi	x0,x0,0
    14e4:	302082e3          	beq	x1,x2,1fe8 <fail>
    14e8:	00120213          	addi	x4,x4,1 # 1 <begin_signature+0x1>
    14ec:	00200293          	addi	x5,x0,2
    14f0:	fe5214e3          	bne	x4,x5,14d8 <test_30+0x8>

000014f4 <test_31>:
    14f4:	01f00193          	addi	x3,x0,31
    14f8:	00000213          	addi	x4,x0,0
    14fc:	00000093          	addi	x1,x0,0
    1500:	fff00113          	addi	x2,x0,-1
    1504:	00000013          	addi	x0,x0,0
    1508:	00000013          	addi	x0,x0,0
    150c:	2c208ee3          	beq	x1,x2,1fe8 <fail>
    1510:	00120213          	addi	x4,x4,1 # 1 <begin_signature+0x1>
    1514:	00200293          	addi	x5,x0,2
    1518:	fe5212e3          	bne	x4,x5,14fc <test_31+0x8>

0000151c <test_32>:
    151c:	02000193          	addi	x3,x0,32
    1520:	00000213          	addi	x4,x0,0
    1524:	00000093          	addi	x1,x0,0
    1528:	00000013          	addi	x0,x0,0
    152c:	fff00113          	addi	x2,x0,-1
    1530:	2a208ce3          	beq	x1,x2,1fe8 <fail>
    1534:	00120213          	addi	x4,x4,1 # 1 <begin_signature+0x1>
    1538:	00200293          	addi	x5,x0,2
    153c:	fe5214e3          	bne	x4,x5,1524 <test_32+0x8>

00001540 <test_33>:
    1540:	02100193          	addi	x3,x0,33
    1544:	00000213          	addi	x4,x0,0
    1548:	00000093          	addi	x1,x0,0
    154c:	00000013          	addi	x0,x0,0
    1550:	fff00113          	addi	x2,x0,-1
    1554:	00000013          	addi	x0,x0,0
    1558:	282088e3          	beq	x1,x2,1fe8 <fail>
    155c:	00120213          	addi	x4,x4,1 # 1 <begin_signature+0x1>
    1560:	00200293          	addi	x5,x0,2
    1564:	fe5212e3          	bne	x4,x5,1548 <test_33+0x8>

00001568 <test_34>:
    1568:	02200193          	addi	x3,x0,34
    156c:	00000213          	addi	x4,x0,0
    1570:	00000093          	addi	x1,x0,0
    1574:	00000013          	addi	x0,x0,0
    1578:	00000013          	addi	x0,x0,0
    157c:	fff00113          	addi	x2,x0,-1
    1580:	262084e3          	beq	x1,x2,1fe8 <fail>
    1584:	00120213          	addi	x4,x4,1 # 1 <begin_signature+0x1>
    1588:	00200293          	addi	x5,x0,2
    158c:	fe5212e3          	bne	x4,x5,1570 <test_34+0x8>

00001590 <test_35>:
    1590:	02300193          	addi	x3,x0,35
    1594:	00000213          	addi	x4,x0,0
    1598:	00000093          	addi	x1,x0,0
    159c:	fff00113          	addi	x2,x0,-1
    15a0:	2420c4e3          	blt	x1,x2,1fe8 <fail>
    15a4:	00120213          	addi	x4,x4,1 # 1 <begin_signature+0x1>
    15a8:	00200293          	addi	x5,x0,2
    15ac:	fe5216e3          	bne	x4,x5,1598 <test_35+0x8>

000015b0 <test_36>:
    15b0:	02400193          	addi	x3,x0,36
    15b4:	00000213          	addi	x4,x0,0
    15b8:	00000093          	addi	x1,x0,0
    15bc:	fff00113          	addi	x2,x0,-1
    15c0:	00000013          	addi	x0,x0,0
    15c4:	2220c2e3          	blt	x1,x2,1fe8 <fail>
    15c8:	00120213          	addi	x4,x4,1 # 1 <begin_signature+0x1>
    15cc:	00200293          	addi	x5,x0,2
    15d0:	fe5214e3          	bne	x4,x5,15b8 <test_36+0x8>

000015d4 <test_37>:
    15d4:	02500193          	addi	x3,x0,37
    15d8:	00000213          	addi	x4,x0,0
    15dc:	00000093          	addi	x1,x0,0
    15e0:	fff00113          	addi	x2,x0,-1
    15e4:	00000013          	addi	x0,x0,0
    15e8:	00000013          	addi	x0,x0,0
    15ec:	1e20cee3          	blt	x1,x2,1fe8 <fail>
    15f0:	00120213          	addi	x4,x4,1 # 1 <begin_signature+0x1>
    15f4:	00200293          	addi	x5,x0,2
    15f8:	fe5212e3          	bne	x4,x5,15dc <test_37+0x8>

000015fc <test_38>:
    15fc:	02600193          	addi	x3,x0,38
    1600:	00000213          	addi	x4,x0,0
    1604:	00000093          	addi	x1,x0,0
    1608:	00000013          	addi	x0,x0,0
    160c:	fff00113          	addi	x2,x0,-1
    1610:	1c20cce3          	blt	x1,x2,1fe8 <fail>
    1614:	00120213          	addi	x4,x4,1 # 1 <begin_signature+0x1>
    1618:	00200293          	addi	x5,x0,2
    161c:	fe5214e3          	bne	x4,x5,1604 <test_38+0x8>

00001620 <test_39>:
    1620:	02700193          	addi	x3,x0,39
    1624:	00000213          	addi	x4,x0,0
    1628:	00000093          	addi	x1,x0,0
    162c:	00000013          	addi	x0,x0,0
    1630:	fff00113          	addi	x2,x0,-1
    1634:	00000013          	addi	x0,x0,0
    1638:	1a20c8e3          	blt	x1,x2,1fe8 <fail>
    163c:	00120213          	addi	x4,x4,1 # 1 <begin_signature+0x1>
    1640:	00200293          	addi	x5,x0,2
    1644:	fe5212e3          	bne	x4,x5,1628 <test_39+0x8>

00001648 <test_40>:
    1648:	02800193          	addi	x3,x0,40
    164c:	00000213          	addi	x4,x0,0
    1650:	00000093          	addi	x1,x0,0
    1654:	00000013          	addi	x0,x0,0
    1658:	00000013          	addi	x0,x0,0
    165c:	fff00113          	addi	x2,x0,-1
    1660:	1820c4e3          	blt	x1,x2,1fe8 <fail>
    1664:	00120213          	addi	x4,x4,1 # 1 <begin_signature+0x1>
    1668:	00200293          	addi	x5,x0,2
    166c:	fe5212e3          	bne	x4,x5,1650 <test_40+0x8>

00001670 <test_41>:
    1670:	02900193          	addi	x3,x0,41
    1674:	00000213          	addi	x4,x0,0
    1678:	00000093          	addi	x1,x0,0
    167c:	fff00113          	addi	x2,x0,-1
    1680:	1620c4e3          	blt	x1,x2,1fe8 <fail>
    1684:	00120213          	addi	x4,x4,1 # 1 <begin_signature+0x1>
    1688:	00200293          	addi	x5,x0,2
    168c:	fe5216e3          	bne	x4,x5,1678 <test_41+0x8>

00001690 <test_42>:
    1690:	02a00193          	addi	x3,x0,42
    1694:	00000213          	addi	x4,x0,0
    1698:	00000093          	addi	x1,x0,0
    169c:	fff00113          	addi	x2,x0,-1
    16a0:	00000013          	addi	x0,x0,0
    16a4:	1420c2e3          	blt	x1,x2,1fe8 <fail>
    16a8:	00120213          	addi	x4,x4,1 # 1 <begin_signature+0x1>
    16ac:	00200293          	addi	x5,x0,2
    16b0:	fe5214e3          	bne	x4,x5,1698 <test_42+0x8>

000016b4 <test_43>:
    16b4:	02b00193          	addi	x3,x0,43
    16b8:	00000213          	addi	x4,x0,0
    16bc:	00000093          	addi	x1,x0,0
    16c0:	fff00113          	addi	x2,x0,-1
    16c4:	00000013          	addi	x0,x0,0
    16c8:	00000013          	addi	x0,x0,0
    16cc:	1020cee3          	blt	x1,x2,1fe8 <fail>
    16d0:	00120213          	addi	x4,x4,1 # 1 <begin_signature+0x1>
    16d4:	00200293          	addi	x5,x0,2
    16d8:	fe5212e3          	bne	x4,x5,16bc <test_43+0x8>

000016dc <test_44>:
    16dc:	02c00193          	addi	x3,x0,44
    16e0:	00000213          	addi	x4,x0,0
    16e4:	00000093          	addi	x1,x0,0
    16e8:	00000013          	addi	x0,x0,0
    16ec:	fff00113          	addi	x2,x0,-1
    16f0:	0e20cce3          	blt	x1,x2,1fe8 <fail>
    16f4:	00120213          	addi	x4,x4,1 # 1 <begin_signature+0x1>
    16f8:	00200293          	addi	x5,x0,2
    16fc:	fe5214e3          	bne	x4,x5,16e4 <test_44+0x8>

00001700 <test_45>:
    1700:	02d00193          	addi	x3,x0,45
    1704:	00000213          	addi	x4,x0,0
    1708:	00000093          	addi	x1,x0,0
    170c:	00000013          	addi	x0,x0,0
    1710:	fff00113          	addi	x2,x0,-1
    1714:	00000013          	addi	x0,x0,0
    1718:	0c20c8e3          	blt	x1,x2,1fe8 <fail>
    171c:	00120213          	addi	x4,x4,1 # 1 <begin_signature+0x1>
    1720:	00200293          	addi	x5,x0,2
    1724:	fe5212e3          	bne	x4,x5,1708 <test_45+0x8>

00001728 <test_46>:
    1728:	02e00193          	addi	x3,x0,46
    172c:	00000213          	addi	x4,x0,0
    1730:	00000093          	addi	x1,x0,0
    1734:	00000013          	addi	x0,x0,0
    1738:	00000013          	addi	x0,x0,0
    173c:	fff00113          	addi	x2,x0,-1
    1740:	0a20c4e3          	blt	x1,x2,1fe8 <fail>
    1744:	00120213          	addi	x4,x4,1 # 1 <begin_signature+0x1>
    1748:	00200293          	addi	x5,x0,2
    174c:	fe5212e3          	bne	x4,x5,1730 <test_46+0x8>

00001750 <test_47>:
    1750:	02f00193          	addi	x3,x0,47
    1754:	00000213          	addi	x4,x0,0
    1758:	00000317          	auipc	x6,0x0
    175c:	01030313          	addi	x6,x6,16 # 1768 <test_47+0x18>
    1760:	000306e7          	jalr	x13,0(x6)
    1764:	083012e3          	bne	x0,x3,1fe8 <fail>
    1768:	00120213          	addi	x4,x4,1 # 1 <begin_signature+0x1>
    176c:	00200293          	addi	x5,x0,2
    1770:	fe5214e3          	bne	x4,x5,1758 <test_47+0x8>

00001774 <test_48>:
    1774:	03000193          	addi	x3,x0,48
    1778:	00000213          	addi	x4,x0,0
    177c:	00000317          	auipc	x6,0x0
    1780:	01430313          	addi	x6,x6,20 # 1790 <test_48+0x1c>
    1784:	00000013          	addi	x0,x0,0
    1788:	000306e7          	jalr	x13,0(x6)
    178c:	04301ee3          	bne	x0,x3,1fe8 <fail>
    1790:	00120213          	addi	x4,x4,1 # 1 <begin_signature+0x1>
    1794:	00200293          	addi	x5,x0,2
    1798:	fe5212e3          	bne	x4,x5,177c <test_48+0x8>

0000179c <test_49>:
    179c:	03100193          	addi	x3,x0,49
    17a0:	00000213          	addi	x4,x0,0
    17a4:	00000317          	auipc	x6,0x0
    17a8:	01830313          	addi	x6,x6,24 # 17bc <test_49+0x20>
    17ac:	00000013          	addi	x0,x0,0
    17b0:	00000013          	addi	x0,x0,0
    17b4:	000306e7          	jalr	x13,0(x6)
    17b8:	023018e3          	bne	x0,x3,1fe8 <fail>
    17bc:	00120213          	addi	x4,x4,1 # 1 <begin_signature+0x1>
    17c0:	00200293          	addi	x5,x0,2
    17c4:	fe5210e3          	bne	x4,x5,17a4 <test_49+0x8>

000017c8 <test_50>:
    17c8:	00000213          	addi	x4,x0,0
    17cc:	00d00093          	addi	x1,x0,13
    17d0:	00b00113          	addi	x2,x0,11
    17d4:	00208733          	add	x14,x1,x2
    17d8:	00120213          	addi	x4,x4,1 # 1 <begin_signature+0x1>
    17dc:	00200293          	addi	x5,x0,2
    17e0:	fe5216e3          	bne	x4,x5,17cc <test_50+0x4>
    17e4:	01800393          	addi	x7,x0,24
    17e8:	03200193          	addi	x3,x0,50
    17ec:	7e771e63          	bne	x14,x7,1fe8 <fail>

000017f0 <test_51>:
    17f0:	00000213          	addi	x4,x0,0
    17f4:	00e00093          	addi	x1,x0,14
    17f8:	00b00113          	addi	x2,x0,11
    17fc:	00000013          	addi	x0,x0,0
    1800:	00208733          	add	x14,x1,x2
    1804:	00120213          	addi	x4,x4,1 # 1 <begin_signature+0x1>
    1808:	00200293          	addi	x5,x0,2
    180c:	fe5214e3          	bne	x4,x5,17f4 <test_51+0x4>
    1810:	01900393          	addi	x7,x0,25
    1814:	03300193          	addi	x3,x0,51
    1818:	7c771863          	bne	x14,x7,1fe8 <fail>

0000181c <test_52>:
    181c:	00000213          	addi	x4,x0,0
    1820:	00f00093          	addi	x1,x0,15
    1824:	00b00113          	addi	x2,x0,11
    1828:	00000013          	addi	x0,x0,0
    182c:	00000013          	addi	x0,x0,0
    1830:	00208733          	add	x14,x1,x2
    1834:	00120213          	addi	x4,x4,1 # 1 <begin_signature+0x1>
    1838:	00200293          	addi	x5,x0,2
    183c:	fe5212e3          	bne	x4,x5,1820 <test_52+0x4>
    1840:	01a00393          	addi	x7,x0,26
    1844:	03400193          	addi	x3,x0,52
    1848:	7a771063          	bne	x14,x7,1fe8 <fail>

0000184c <test_53>:
    184c:	00000213          	addi	x4,x0,0
    1850:	00d00093          	addi	x1,x0,13
    1854:	00000013          	addi	x0,x0,0
    1858:	00b00113          	addi	x2,x0,11
    185c:	00208733          	add	x14,x1,x2
    1860:	00120213          	addi	x4,x4,1 # 1 <begin_signature+0x1>
    1864:	00200293          	addi	x5,x0,2
    1868:	fe5214e3          	bne	x4,x5,1850 <test_53+0x4>
    186c:	01800393          	addi	x7,x0,24
    1870:	03500193          	addi	x3,x0,53
    1874:	76771a63          	bne	x14,x7,1fe8 <fail>

00001878 <test_54>:
    1878:	00000213          	addi	x4,x0,0
    187c:	00e00093          	addi	x1,x0,14
    1880:	00000013          	addi	x0,x0,0
    1884:	00b00113          	addi	x2,x0,11
    1888:	00000013          	addi	x0,x0,0
    188c:	00208733          	add	x14,x1,x2
    1890:	00120213          	addi	x4,x4,1 # 1 <begin_signature+0x1>
    1894:	00200293          	addi	x5,x0,2
    1898:	fe5212e3          	bne	x4,x5,187c <test_54+0x4>
    189c:	01900393          	addi	x7,x0,25
    18a0:	03600193          	addi	x3,x0,54
    18a4:	74771263          	bne	x14,x7,1fe8 <fail>

000018a8 <test_55>:
    18a8:	00000213          	addi	x4,x0,0
    18ac:	00f00093          	addi	x1,x0,15
    18b0:	00000013          	addi	x0,x0,0
    18b4:	00000013          	addi	x0,x0,0
    18b8:	00b00113          	addi	x2,x0,11
    18bc:	00208733          	add	x14,x1,x2
    18c0:	00120213          	addi	x4,x4,1 # 1 <begin_signature+0x1>
    18c4:	00200293          	addi	x5,x0,2
    18c8:	fe5212e3          	bne	x4,x5,18ac <test_55+0x4>
    18cc:	01a00393          	addi	x7,x0,26
    18d0:	03700193          	addi	x3,x0,55
    18d4:	70771a63          	bne	x14,x7,1fe8 <fail>

000018d8 <test_56>:
    18d8:	00000213          	addi	x4,x0,0
    18dc:	00b00113          	addi	x2,x0,11
    18e0:	00d00093          	addi	x1,x0,13
    18e4:	00208733          	add	x14,x1,x2
    18e8:	00120213          	addi	x4,x4,1 # 1 <begin_signature+0x1>
    18ec:	00200293          	addi	x5,x0,2
    18f0:	fe5216e3          	bne	x4,x5,18dc <test_56+0x4>
    18f4:	01800393          	addi	x7,x0,24
    18f8:	03800193          	addi	x3,x0,56
    18fc:	6e771663          	bne	x14,x7,1fe8 <fail>

00001900 <test_57>:
    1900:	00000213          	addi	x4,x0,0
    1904:	00b00113          	addi	x2,x0,11
    1908:	00e00093          	addi	x1,x0,14
    190c:	00000013          	addi	x0,x0,0
    1910:	00208733          	add	x14,x1,x2
    1914:	00120213          	addi	x4,x4,1 # 1 <begin_signature+0x1>
    1918:	00200293          	addi	x5,x0,2
    191c:	fe5214e3          	bne	x4,x5,1904 <test_57+0x4>
    1920:	01900393          	addi	x7,x0,25
    1924:	03900193          	addi	x3,x0,57
    1928:	6c771063          	bne	x14,x7,1fe8 <fail>

0000192c <test_58>:
    192c:	00000213          	addi	x4,x0,0
    1930:	00b00113          	addi	x2,x0,11
    1934:	00f00093          	addi	x1,x0,15
    1938:	00000013          	addi	x0,x0,0
    193c:	00000013          	addi	x0,x0,0
    1940:	00208733          	add	x14,x1,x2
    1944:	00120213          	addi	x4,x4,1 # 1 <begin_signature+0x1>
    1948:	00200293          	addi	x5,x0,2
    194c:	fe5212e3          	bne	x4,x5,1930 <test_58+0x4>
    1950:	01a00393          	addi	x7,x0,26
    1954:	03a00193          	addi	x3,x0,58
    1958:	68771863          	bne	x14,x7,1fe8 <fail>

0000195c <test_59>:
    195c:	00000213          	addi	x4,x0,0
    1960:	00b00113          	addi	x2,x0,11
    1964:	00000013          	addi	x0,x0,0
    1968:	00d00093          	addi	x1,x0,13
    196c:	00208733          	add	x14,x1,x2
    1970:	00120213          	addi	x4,x4,1 # 1 <begin_signature+0x1>
    1974:	00200293          	addi	x5,x0,2
    1978:	fe5214e3          	bne	x4,x5,1960 <test_59+0x4>
    197c:	01800393          	addi	x7,x0,24
    1980:	03b00193          	addi	x3,x0,59
    1984:	66771263          	bne	x14,x7,1fe8 <fail>

00001988 <test_60>:
    1988:	00000213          	addi	x4,x0,0
    198c:	00b00113          	addi	x2,x0,11
    1990:	00000013          	addi	x0,x0,0
    1994:	00e00093          	addi	x1,x0,14
    1998:	00000013          	addi	x0,x0,0
    199c:	00208733          	add	x14,x1,x2
    19a0:	00120213          	addi	x4,x4,1 # 1 <begin_signature+0x1>
    19a4:	00200293          	addi	x5,x0,2
    19a8:	fe5212e3          	bne	x4,x5,198c <test_60+0x4>
    19ac:	01900393          	addi	x7,x0,25
    19b0:	03c00193          	addi	x3,x0,60
    19b4:	62771a63          	bne	x14,x7,1fe8 <fail>

000019b8 <test_61>:
    19b8:	00000213          	addi	x4,x0,0
    19bc:	00b00113          	addi	x2,x0,11
    19c0:	00000013          	addi	x0,x0,0
    19c4:	00000013          	addi	x0,x0,0
    19c8:	00f00093          	addi	x1,x0,15
    19cc:	00208733          	add	x14,x1,x2
    19d0:	00120213          	addi	x4,x4,1 # 1 <begin_signature+0x1>
    19d4:	00200293          	addi	x5,x0,2
    19d8:	fe5212e3          	bne	x4,x5,19bc <test_61+0x4>
    19dc:	01a00393          	addi	x7,x0,26
    19e0:	03d00193          	addi	x3,x0,61
    19e4:	60771263          	bne	x14,x7,1fe8 <fail>

000019e8 <test_62>:
    19e8:	00000213          	addi	x4,x0,0
    19ec:	00d00093          	addi	x1,x0,13
    19f0:	00b00113          	addi	x2,x0,11
    19f4:	40208733          	sub	x14,x1,x2
    19f8:	00070313          	addi	x6,x14,0
    19fc:	00120213          	addi	x4,x4,1 # 1 <begin_signature+0x1>
    1a00:	00200293          	addi	x5,x0,2
    1a04:	fe5214e3          	bne	x4,x5,19ec <test_62+0x4>
    1a08:	00200393          	addi	x7,x0,2
    1a0c:	03e00193          	addi	x3,x0,62
    1a10:	5c731c63          	bne	x6,x7,1fe8 <fail>

00001a14 <test_63>:
    1a14:	00000213          	addi	x4,x0,0
    1a18:	00e00093          	addi	x1,x0,14
    1a1c:	00b00113          	addi	x2,x0,11
    1a20:	40208733          	sub	x14,x1,x2
    1a24:	00000013          	addi	x0,x0,0
    1a28:	00070313          	addi	x6,x14,0
    1a2c:	00120213          	addi	x4,x4,1 # 1 <begin_signature+0x1>
    1a30:	00200293          	addi	x5,x0,2
    1a34:	fe5212e3          	bne	x4,x5,1a18 <test_63+0x4>
    1a38:	00300393          	addi	x7,x0,3
    1a3c:	03f00193          	addi	x3,x0,63
    1a40:	5a731463          	bne	x6,x7,1fe8 <fail>

00001a44 <test_64>:
    1a44:	00000213          	addi	x4,x0,0
    1a48:	00f00093          	addi	x1,x0,15
    1a4c:	00b00113          	addi	x2,x0,11
    1a50:	40208733          	sub	x14,x1,x2
    1a54:	00000013          	addi	x0,x0,0
    1a58:	00000013          	addi	x0,x0,0
    1a5c:	00070313          	addi	x6,x14,0
    1a60:	00120213          	addi	x4,x4,1 # 1 <begin_signature+0x1>
    1a64:	00200293          	addi	x5,x0,2
    1a68:	fe5210e3          	bne	x4,x5,1a48 <test_64+0x4>
    1a6c:	00400393          	addi	x7,x0,4
    1a70:	04000193          	addi	x3,x0,64
    1a74:	56731a63          	bne	x6,x7,1fe8 <fail>

00001a78 <test_65>:
    1a78:	00000213          	addi	x4,x0,0
    1a7c:	00d00093          	addi	x1,x0,13
    1a80:	00b00113          	addi	x2,x0,11
    1a84:	40208733          	sub	x14,x1,x2
    1a88:	00120213          	addi	x4,x4,1 # 1 <begin_signature+0x1>
    1a8c:	00200293          	addi	x5,x0,2
    1a90:	fe5216e3          	bne	x4,x5,1a7c <test_65+0x4>
    1a94:	00200393          	addi	x7,x0,2
    1a98:	04100193          	addi	x3,x0,65
    1a9c:	54771663          	bne	x14,x7,1fe8 <fail>

00001aa0 <test_66>:
    1aa0:	00000213          	addi	x4,x0,0
    1aa4:	00e00093          	addi	x1,x0,14
    1aa8:	00b00113          	addi	x2,x0,11
    1aac:	00000013          	addi	x0,x0,0
    1ab0:	40208733          	sub	x14,x1,x2
    1ab4:	00120213          	addi	x4,x4,1 # 1 <begin_signature+0x1>
    1ab8:	00200293          	addi	x5,x0,2
    1abc:	fe5214e3          	bne	x4,x5,1aa4 <test_66+0x4>
    1ac0:	00300393          	addi	x7,x0,3
    1ac4:	04200193          	addi	x3,x0,66
    1ac8:	52771063          	bne	x14,x7,1fe8 <fail>

00001acc <test_67>:
    1acc:	00000213          	addi	x4,x0,0
    1ad0:	00f00093          	addi	x1,x0,15
    1ad4:	00b00113          	addi	x2,x0,11
    1ad8:	00000013          	addi	x0,x0,0
    1adc:	00000013          	addi	x0,x0,0
    1ae0:	40208733          	sub	x14,x1,x2
    1ae4:	00120213          	addi	x4,x4,1 # 1 <begin_signature+0x1>
    1ae8:	00200293          	addi	x5,x0,2
    1aec:	fe5212e3          	bne	x4,x5,1ad0 <test_67+0x4>
    1af0:	00400393          	addi	x7,x0,4
    1af4:	04300193          	addi	x3,x0,67
    1af8:	4e771863          	bne	x14,x7,1fe8 <fail>

00001afc <test_68>:
    1afc:	00000213          	addi	x4,x0,0
    1b00:	00d00093          	addi	x1,x0,13
    1b04:	00000013          	addi	x0,x0,0
    1b08:	00b00113          	addi	x2,x0,11
    1b0c:	40208733          	sub	x14,x1,x2
    1b10:	00120213          	addi	x4,x4,1 # 1 <begin_signature+0x1>
    1b14:	00200293          	addi	x5,x0,2
    1b18:	fe5214e3          	bne	x4,x5,1b00 <test_68+0x4>
    1b1c:	00200393          	addi	x7,x0,2
    1b20:	04400193          	addi	x3,x0,68
    1b24:	4c771263          	bne	x14,x7,1fe8 <fail>

00001b28 <test_69>:
    1b28:	00000213          	addi	x4,x0,0
    1b2c:	00e00093          	addi	x1,x0,14
    1b30:	00000013          	addi	x0,x0,0
    1b34:	00b00113          	addi	x2,x0,11
    1b38:	00000013          	addi	x0,x0,0
    1b3c:	40208733          	sub	x14,x1,x2
    1b40:	00120213          	addi	x4,x4,1 # 1 <begin_signature+0x1>
    1b44:	00200293          	addi	x5,x0,2
    1b48:	fe5212e3          	bne	x4,x5,1b2c <test_69+0x4>
    1b4c:	00300393          	addi	x7,x0,3
    1b50:	04500193          	addi	x3,x0,69
    1b54:	48771a63          	bne	x14,x7,1fe8 <fail>

00001b58 <test_70>:
    1b58:	00000213          	addi	x4,x0,0
    1b5c:	00f00093          	addi	x1,x0,15
    1b60:	00000013          	addi	x0,x0,0
    1b64:	00000013          	addi	x0,x0,0
    1b68:	00b00113          	addi	x2,x0,11
    1b6c:	40208733          	sub	x14,x1,x2
    1b70:	00120213          	addi	x4,x4,1 # 1 <begin_signature+0x1>
    1b74:	00200293          	addi	x5,x0,2
    1b78:	fe5212e3          	bne	x4,x5,1b5c <test_70+0x4>
    1b7c:	00400393          	addi	x7,x0,4
    1b80:	04600193          	addi	x3,x0,70
    1b84:	46771263          	bne	x14,x7,1fe8 <fail>

00001b88 <test_71>:
    1b88:	00000213          	addi	x4,x0,0
    1b8c:	00b00113          	addi	x2,x0,11
    1b90:	00d00093          	addi	x1,x0,13
    1b94:	40208733          	sub	x14,x1,x2
    1b98:	00120213          	addi	x4,x4,1 # 1 <begin_signature+0x1>
    1b9c:	00200293          	addi	x5,x0,2
    1ba0:	fe5216e3          	bne	x4,x5,1b8c <test_71+0x4>
    1ba4:	00200393          	addi	x7,x0,2
    1ba8:	04700193          	addi	x3,x0,71
    1bac:	42771e63          	bne	x14,x7,1fe8 <fail>

00001bb0 <test_72>:
    1bb0:	00000213          	addi	x4,x0,0
    1bb4:	00b00113          	addi	x2,x0,11
    1bb8:	00e00093          	addi	x1,x0,14
    1bbc:	00000013          	addi	x0,x0,0
    1bc0:	40208733          	sub	x14,x1,x2
    1bc4:	00120213          	addi	x4,x4,1 # 1 <begin_signature+0x1>
    1bc8:	00200293          	addi	x5,x0,2
    1bcc:	fe5214e3          	bne	x4,x5,1bb4 <test_72+0x4>
    1bd0:	00300393          	addi	x7,x0,3
    1bd4:	04800193          	addi	x3,x0,72
    1bd8:	40771863          	bne	x14,x7,1fe8 <fail>

00001bdc <test_73>:
    1bdc:	00000213          	addi	x4,x0,0
    1be0:	00b00113          	addi	x2,x0,11
    1be4:	00f00093          	addi	x1,x0,15
    1be8:	00000013          	addi	x0,x0,0
    1bec:	00000013          	addi	x0,x0,0
    1bf0:	40208733          	sub	x14,x1,x2
    1bf4:	00120213          	addi	x4,x4,1 # 1 <begin_signature+0x1>
    1bf8:	00200293          	addi	x5,x0,2
    1bfc:	fe5212e3          	bne	x4,x5,1be0 <test_73+0x4>
    1c00:	00400393          	addi	x7,x0,4
    1c04:	04900193          	addi	x3,x0,73
    1c08:	3e771063          	bne	x14,x7,1fe8 <fail>

00001c0c <test_74>:
    1c0c:	00000213          	addi	x4,x0,0
    1c10:	00b00113          	addi	x2,x0,11
    1c14:	00000013          	addi	x0,x0,0
    1c18:	00d00093          	addi	x1,x0,13
    1c1c:	40208733          	sub	x14,x1,x2
    1c20:	00120213          	addi	x4,x4,1 # 1 <begin_signature+0x1>
    1c24:	00200293          	addi	x5,x0,2
    1c28:	fe5214e3          	bne	x4,x5,1c10 <test_74+0x4>
    1c2c:	00200393          	addi	x7,x0,2
    1c30:	04a00193          	addi	x3,x0,74
    1c34:	3a771a63          	bne	x14,x7,1fe8 <fail>

00001c38 <test_75>:
    1c38:	00000213          	addi	x4,x0,0
    1c3c:	00b00113          	addi	x2,x0,11
    1c40:	00000013          	addi	x0,x0,0
    1c44:	00e00093          	addi	x1,x0,14
    1c48:	00000013          	addi	x0,x0,0
    1c4c:	40208733          	sub	x14,x1,x2
    1c50:	00120213          	addi	x4,x4,1 # 1 <begin_signature+0x1>
    1c54:	00200293          	addi	x5,x0,2
    1c58:	fe5212e3          	bne	x4,x5,1c3c <test_75+0x4>
    1c5c:	00300393          	addi	x7,x0,3
    1c60:	04b00193          	addi	x3,x0,75
    1c64:	38771263          	bne	x14,x7,1fe8 <fail>

00001c68 <test_76>:
    1c68:	00000213          	addi	x4,x0,0
    1c6c:	00b00113          	addi	x2,x0,11
    1c70:	00000013          	addi	x0,x0,0
    1c74:	00000013          	addi	x0,x0,0
    1c78:	00f00093          	addi	x1,x0,15
    1c7c:	40208733          	sub	x14,x1,x2
    1c80:	00120213          	addi	x4,x4,1 # 1 <begin_signature+0x1>
    1c84:	00200293          	addi	x5,x0,2
    1c88:	fe5212e3          	bne	x4,x5,1c6c <test_76+0x4>
    1c8c:	00400393          	addi	x7,x0,4
    1c90:	04c00193          	addi	x3,x0,76
    1c94:	34771a63          	bne	x14,x7,1fe8 <fail>

00001c98 <test_77>:
    1c98:	04d00193          	addi	x3,x0,77
    1c9c:	00000213          	addi	x4,x0,0
    1ca0:	03c00093          	addi	x1,x0,60
    1ca4:	0040a703          	lw	x14,4(x1)
    1ca8:	00070313          	addi	x6,x14,0
    1cac:	01000393          	addi	x7,x0,16
    1cb0:	32731c63          	bne	x6,x7,1fe8 <fail>
    1cb4:	00120213          	addi	x4,x4,1 # 1 <begin_signature+0x1>
    1cb8:	00200293          	addi	x5,x0,2
    1cbc:	fe5212e3          	bne	x4,x5,1ca0 <test_77+0x8>

00001cc0 <test_78>:
    1cc0:	04e00193          	addi	x3,x0,78
    1cc4:	00000213          	addi	x4,x0,0
    1cc8:	04000093          	addi	x1,x0,64
    1ccc:	0040a703          	lw	x14,4(x1)
    1cd0:	00000013          	addi	x0,x0,0
    1cd4:	00070313          	addi	x6,x14,0
    1cd8:	10000393          	addi	x7,x0,256
    1cdc:	30731663          	bne	x6,x7,1fe8 <fail>
    1ce0:	00120213          	addi	x4,x4,1 # 1 <begin_signature+0x1>
    1ce4:	00200293          	addi	x5,x0,2
    1ce8:	fe5210e3          	bne	x4,x5,1cc8 <test_78+0x8>

00001cec <test_79>:
    1cec:	04f00193          	addi	x3,x0,79
    1cf0:	00000213          	addi	x4,x0,0
    1cf4:	03800093          	addi	x1,x0,56
    1cf8:	0040a703          	lw	x14,4(x1)
    1cfc:	00000013          	addi	x0,x0,0
    1d00:	00000013          	addi	x0,x0,0
    1d04:	00070313          	addi	x6,x14,0
    1d08:	00100393          	addi	x7,x0,1
    1d0c:	2c731e63          	bne	x6,x7,1fe8 <fail>
    1d10:	00120213          	addi	x4,x4,1 # 1 <begin_signature+0x1>
    1d14:	00200293          	addi	x5,x0,2
    1d18:	fc521ee3          	bne	x4,x5,1cf4 <test_79+0x8>

00001d1c <test_80>:
    1d1c:	05000193          	addi	x3,x0,80
    1d20:	00000213          	addi	x4,x0,0
    1d24:	03c00093          	addi	x1,x0,60
    1d28:	0040a703          	lw	x14,4(x1)
    1d2c:	01000393          	addi	x7,x0,16
    1d30:	2a771c63          	bne	x14,x7,1fe8 <fail>
    1d34:	00120213          	addi	x4,x4,1 # 1 <begin_signature+0x1>
    1d38:	00200293          	addi	x5,x0,2
    1d3c:	fe5214e3          	bne	x4,x5,1d24 <test_80+0x8>

00001d40 <test_81>:
    1d40:	05100193          	addi	x3,x0,81
    1d44:	00000213          	addi	x4,x0,0
    1d48:	04000093          	addi	x1,x0,64
    1d4c:	00000013          	addi	x0,x0,0
    1d50:	0040a703          	lw	x14,4(x1)
    1d54:	10000393          	addi	x7,x0,256
    1d58:	28771863          	bne	x14,x7,1fe8 <fail>
    1d5c:	00120213          	addi	x4,x4,1 # 1 <begin_signature+0x1>
    1d60:	00200293          	addi	x5,x0,2
    1d64:	fe5212e3          	bne	x4,x5,1d48 <test_81+0x8>

00001d68 <test_82>:
    1d68:	05200193          	addi	x3,x0,82
    1d6c:	00000213          	addi	x4,x0,0
    1d70:	03800093          	addi	x1,x0,56
    1d74:	00000013          	addi	x0,x0,0
    1d78:	00000013          	addi	x0,x0,0
    1d7c:	0040a703          	lw	x14,4(x1)
    1d80:	00100393          	addi	x7,x0,1
    1d84:	26771263          	bne	x14,x7,1fe8 <fail>
    1d88:	00120213          	addi	x4,x4,1 # 1 <begin_signature+0x1>
    1d8c:	00200293          	addi	x5,x0,2
    1d90:	fe5210e3          	bne	x4,x5,1d70 <test_82+0x8>

00001d94 <test_83>:
    1d94:	05300193          	addi	x3,x0,83
    1d98:	00000213          	addi	x4,x0,0
    1d9c:	00000093          	addi	x1,x0,0
    1da0:	01000113          	addi	x2,x0,16
    1da4:	00112023          	sw	x1,0(x2)
    1da8:	00012703          	lw	x14,0(x2)
    1dac:	00000393          	addi	x7,x0,0
    1db0:	22771c63          	bne	x14,x7,1fe8 <fail>
    1db4:	00120213          	addi	x4,x4,1 # 1 <begin_signature+0x1>
    1db8:	00200293          	addi	x5,x0,2
    1dbc:	fe5210e3          	bne	x4,x5,1d9c <test_83+0x8>

00001dc0 <test_84>:
    1dc0:	05400193          	addi	x3,x0,84
    1dc4:	00000213          	addi	x4,x0,0
    1dc8:	00400093          	addi	x1,x0,4
    1dcc:	01000113          	addi	x2,x0,16
    1dd0:	00000013          	addi	x0,x0,0
    1dd4:	00112223          	sw	x1,4(x2)
    1dd8:	00412703          	lw	x14,4(x2)
    1ddc:	00400393          	addi	x7,x0,4
    1de0:	20771463          	bne	x14,x7,1fe8 <fail>
    1de4:	00120213          	addi	x4,x4,1 # 1 <begin_signature+0x1>
    1de8:	00200293          	addi	x5,x0,2
    1dec:	fc521ee3          	bne	x4,x5,1dc8 <test_84+0x8>

00001df0 <test_85>:
    1df0:	05500193          	addi	x3,x0,85
    1df4:	00000213          	addi	x4,x0,0
    1df8:	00800093          	addi	x1,x0,8
    1dfc:	01000113          	addi	x2,x0,16
    1e00:	00000013          	addi	x0,x0,0
    1e04:	00000013          	addi	x0,x0,0
    1e08:	00112423          	sw	x1,8(x2)
    1e0c:	00812703          	lw	x14,8(x2)
    1e10:	00800393          	addi	x7,x0,8
    1e14:	1c771a63          	bne	x14,x7,1fe8 <fail>
    1e18:	00120213          	addi	x4,x4,1 # 1 <begin_signature+0x1>
    1e1c:	00200293          	addi	x5,x0,2
    1e20:	fc521ce3          	bne	x4,x5,1df8 <test_85+0x8>

00001e24 <test_86>:
    1e24:	05600193          	addi	x3,x0,86
    1e28:	00000213          	addi	x4,x0,0
    1e2c:	00c00093          	addi	x1,x0,12
    1e30:	00000013          	addi	x0,x0,0
    1e34:	01000113          	addi	x2,x0,16
    1e38:	00112623          	sw	x1,12(x2)
    1e3c:	00c12703          	lw	x14,12(x2)
    1e40:	00c00393          	addi	x7,x0,12
    1e44:	1a771263          	bne	x14,x7,1fe8 <fail>
    1e48:	00120213          	addi	x4,x4,1 # 1 <begin_signature+0x1>
    1e4c:	00200293          	addi	x5,x0,2
    1e50:	fc521ee3          	bne	x4,x5,1e2c <test_86+0x8>

00001e54 <test_87>:
    1e54:	05700193          	addi	x3,x0,87
    1e58:	00000213          	addi	x4,x0,0
    1e5c:	01000093          	addi	x1,x0,16
    1e60:	00000013          	addi	x0,x0,0
    1e64:	01000113          	addi	x2,x0,16
    1e68:	00000013          	addi	x0,x0,0
    1e6c:	00112823          	sw	x1,16(x2)
    1e70:	01012703          	lw	x14,16(x2)
    1e74:	01000393          	addi	x7,x0,16
    1e78:	16771863          	bne	x14,x7,1fe8 <fail>
    1e7c:	00120213          	addi	x4,x4,1 # 1 <begin_signature+0x1>
    1e80:	00200293          	addi	x5,x0,2
    1e84:	fc521ce3          	bne	x4,x5,1e5c <test_87+0x8>

00001e88 <test_88>:
    1e88:	05800193          	addi	x3,x0,88
    1e8c:	00000213          	addi	x4,x0,0
    1e90:	01400093          	addi	x1,x0,20
    1e94:	00000013          	addi	x0,x0,0
    1e98:	00000013          	addi	x0,x0,0
    1e9c:	01000113          	addi	x2,x0,16
    1ea0:	00112a23          	sw	x1,20(x2)
    1ea4:	01412703          	lw	x14,20(x2)
    1ea8:	01400393          	addi	x7,x0,20
    1eac:	12771e63          	bne	x14,x7,1fe8 <fail>
    1eb0:	00120213          	addi	x4,x4,1 # 1 <begin_signature+0x1>
    1eb4:	00200293          	addi	x5,x0,2
    1eb8:	fc521ce3          	bne	x4,x5,1e90 <test_88+0x8>

00001ebc <test_89>:
    1ebc:	05900193          	addi	x3,x0,89
    1ec0:	00000213          	addi	x4,x0,0
    1ec4:	01000113          	addi	x2,x0,16
    1ec8:	70000093          	addi	x1,x0,1792
    1ecc:	00112023          	sw	x1,0(x2)
    1ed0:	00012703          	lw	x14,0(x2)
    1ed4:	70000393          	addi	x7,x0,1792
    1ed8:	10771863          	bne	x14,x7,1fe8 <fail>
    1edc:	00120213          	addi	x4,x4,1 # 1 <begin_signature+0x1>
    1ee0:	00200293          	addi	x5,x0,2
    1ee4:	fe5210e3          	bne	x4,x5,1ec4 <test_89+0x8>

00001ee8 <test_90>:
    1ee8:	05a00193          	addi	x3,x0,90
    1eec:	00000213          	addi	x4,x0,0
    1ef0:	01000113          	addi	x2,x0,16
    1ef4:	70400093          	addi	x1,x0,1796
    1ef8:	00000013          	addi	x0,x0,0
    1efc:	00112223          	sw	x1,4(x2)
    1f00:	00412703          	lw	x14,4(x2)
    1f04:	70400393          	addi	x7,x0,1796
    1f08:	0e771063          	bne	x14,x7,1fe8 <fail>
    1f0c:	00120213          	addi	x4,x4,1 # 1 <begin_signature+0x1>
    1f10:	00200293          	addi	x5,x0,2
    1f14:	fc521ee3          	bne	x4,x5,1ef0 <test_90+0x8>

00001f18 <test_91>:
    1f18:	05b00193          	addi	x3,x0,91
    1f1c:	00000213          	addi	x4,x0,0
    1f20:	01000113          	addi	x2,x0,16
    1f24:	70800093          	addi	x1,x0,1800
    1f28:	00000013          	addi	x0,x0,0
    1f2c:	00000013          	addi	x0,x0,0
    1f30:	00112423          	sw	x1,8(x2)
    1f34:	00812703          	lw	x14,8(x2)
    1f38:	70800393          	addi	x7,x0,1800
    1f3c:	0a771663          	bne	x14,x7,1fe8 <fail>
    1f40:	00120213          	addi	x4,x4,1 # 1 <begin_signature+0x1>
    1f44:	00200293          	addi	x5,x0,2
    1f48:	fc521ce3          	bne	x4,x5,1f20 <test_91+0x8>

00001f4c <test_92>:
    1f4c:	05c00193          	addi	x3,x0,92
    1f50:	00000213          	addi	x4,x0,0
    1f54:	01000113          	addi	x2,x0,16
    1f58:	00000013          	addi	x0,x0,0
    1f5c:	70c00093          	addi	x1,x0,1804
    1f60:	00112623          	sw	x1,12(x2)
    1f64:	00c12703          	lw	x14,12(x2)
    1f68:	70c00393          	addi	x7,x0,1804
    1f6c:	06771e63          	bne	x14,x7,1fe8 <fail>
    1f70:	00120213          	addi	x4,x4,1 # 1 <begin_signature+0x1>
    1f74:	00200293          	addi	x5,x0,2
    1f78:	fc521ee3          	bne	x4,x5,1f54 <test_92+0x8>

00001f7c <test_93>:
    1f7c:	05d00193          	addi	x3,x0,93
    1f80:	00000213          	addi	x4,x0,0
    1f84:	01000113          	addi	x2,x0,16
    1f88:	00000013          	addi	x0,x0,0
    1f8c:	71000093          	addi	x1,x0,1808
    1f90:	00000013          	addi	x0,x0,0
    1f94:	00112823          	sw	x1,16(x2)
    1f98:	01012703          	lw	x14,16(x2)
    1f9c:	71000393          	addi	x7,x0,1808
    1fa0:	04771463          	bne	x14,x7,1fe8 <fail>
    1fa4:	00120213          	addi	x4,x4,1 # 1 <begin_signature+0x1>
    1fa8:	00200293          	addi	x5,x0,2
    1fac:	fc521ce3          	bne	x4,x5,1f84 <test_93+0x8>

00001fb0 <test_94>:
    1fb0:	05e00193          	addi	x3,x0,94
    1fb4:	00000213          	addi	x4,x0,0
    1fb8:	01000113          	addi	x2,x0,16
    1fbc:	00000013          	addi	x0,x0,0
    1fc0:	00000013          	addi	x0,x0,0
    1fc4:	71400093          	addi	x1,x0,1812
    1fc8:	00112a23          	sw	x1,20(x2)
    1fcc:	01412703          	lw	x14,20(x2)
    1fd0:	71400393          	addi	x7,x0,1812
    1fd4:	00771a63          	bne	x14,x7,1fe8 <fail>
    1fd8:	00120213          	addi	x4,x4,1 # 1 <begin_signature+0x1>
    1fdc:	00200293          	addi	x5,x0,2
    1fe0:	fc521ce3          	bne	x4,x5,1fb8 <test_94+0x8>
    1fe4:	00301863          	bne	x0,x3,1ff4 <pass>

00001fe8 <fail>:
    1fe8:	00000193          	addi	x3,x0,0
    1fec:	00100413          	addi	x8,x0,1
    1ff0:	00008067          	jalr	x0,0(x1)

00001ff4 <pass>:
    1ff4:	00100193          	addi	x3,x0,1
    1ff8:	00100413          	addi	x8,x0,1
    1ffc:	00008067          	jalr	x0,0(x1)

00002000 <_end>:
    2000:	00000013          	addi	x0,x0,0

Disassembly of section .data:

00000000 <begin_signature>:
   0:	deadbeef          	jal	x29,fffdb5ea <_end+0xfffd95ea>

00000004 <td2>:
   4:	deadbeef          	jal	x29,fffdb5ee <_end+0xfffd95ee>

00000008 <td3>:
   8:	deadbeef          	jal	x29,fffdb5f2 <_end+0xfffd95f2>

0000000c <td4>:
   c:	deadbeef          	jal	x29,fffdb5f6 <_end+0xfffd95f6>

00000010 <tdat>:
  10:	deadbeef          	jal	x29,fffdb5fa <_end+0xfffd95fa>

00000014 <tdat2>:
  14:	deadbeef          	jal	x29,fffdb5fe <_end+0xfffd95fe>

00000018 <tdat3>:
  18:	deadbeef          	jal	x29,fffdb602 <_end+0xfffd9602>

0000001c <tdat4>:
  1c:	deadbeef          	jal	x29,fffdb606 <_end+0xfffd9606>

00000020 <tdat5>:
  20:	deadbeef          	jal	x29,fffdb60a <_end+0xfffd960a>

00000024 <tdat6>:
  24:	deadbeef          	jal	x29,fffdb60e <_end+0xfffd960e>

00000028 <tdat7>:
  28:	deadbeef          	jal	x29,fffdb612 <_end+0xfffd9612>

0000002c <tdat8>:
  2c:	deadbeef          	jal	x29,fffdb616 <_end+0xfffd9616>

00000030 <tdat9>:
  30:	deadbeef          	jal	x29,fffdb61a <_end+0xfffd961a>

00000034 <tdat10>:
  34:	deadbeef          	jal	x29,fffdb61e <_end+0xfffd961e>

00000038 <tdat11>:
  38:	0111                	.insn	2, 0x0111
  3a:	0000                	.insn	2, 0x0000

0000003c <tdat12>:
  3c:	0001                	.insn	2, 0x0001
  3e:	0000                	.insn	2, 0x0000

00000040 <tdat13>:
  40:	0010                	.insn	2, 0x0010
  42:	0000                	.insn	2, 0x0000

00000044 <tdat14>:
  44:	0100                	.insn	2, 0x0100
  46:	0000                	.insn	2, 0x0000
  48:	0000                	.insn	2, 0x0000
  4a:	0000                	.insn	2, 0x0000
  4c:	0000                	.insn	2, 0x0000
  4e:	0000                	.insn	2, 0x0000
