
rv32mi/sll.o:     file format elf32-littleriscv


Disassembly of section .text:

00001000 <_start>:
    1000:	00000093          	addi	x1,x0,0
    1004:	00000113          	addi	x2,x0,0
    1008:	00000193          	addi	x3,x0,0
    100c:	00000213          	addi	x4,x0,0
    1010:	00000293          	addi	x5,x0,0
    1014:	00000313          	addi	x6,x0,0
    1018:	00000393          	addi	x7,x0,0
    101c:	00000413          	addi	x8,x0,0
    1020:	00000493          	addi	x9,x0,0
    1024:	00000513          	addi	x10,x0,0
    1028:	00000593          	addi	x11,x0,0
    102c:	00000613          	addi	x12,x0,0
    1030:	00000693          	addi	x13,x0,0
    1034:	00000713          	addi	x14,x0,0
    1038:	00000793          	addi	x15,x0,0
    103c:	00000813          	addi	x16,x0,0
    1040:	00000893          	addi	x17,x0,0
    1044:	00000913          	addi	x18,x0,0
    1048:	00000993          	addi	x19,x0,0
    104c:	00000a13          	addi	x20,x0,0
    1050:	00000a93          	addi	x21,x0,0
    1054:	00000b13          	addi	x22,x0,0
    1058:	00000b93          	addi	x23,x0,0
    105c:	00000c13          	addi	x24,x0,0
    1060:	00000c93          	addi	x25,x0,0
    1064:	00000d13          	addi	x26,x0,0
    1068:	00000d93          	addi	x27,x0,0
    106c:	00000e13          	addi	x28,x0,0
    1070:	00000e93          	addi	x29,x0,0
    1074:	00000f13          	addi	x30,x0,0
    1078:	00000f93          	addi	x31,x0,0
    107c:	00000193          	addi	x3,x0,0
    1080:	00000413          	addi	x8,x0,0

00001084 <test_2>:
    1084:	00100093          	addi	x1,x0,1
    1088:	00000113          	addi	x2,x0,0
    108c:	00209733          	sll	x14,x1,x2
    1090:	00100393          	addi	x7,x0,1
    1094:	00200193          	addi	x3,x0,2
    1098:	52771e63          	bne	x14,x7,15d4 <fail>

0000109c <test_3>:
    109c:	00100093          	addi	x1,x0,1
    10a0:	00100113          	addi	x2,x0,1
    10a4:	00209733          	sll	x14,x1,x2
    10a8:	00200393          	addi	x7,x0,2
    10ac:	00300193          	addi	x3,x0,3
    10b0:	52771263          	bne	x14,x7,15d4 <fail>

000010b4 <test_4>:
    10b4:	00100093          	addi	x1,x0,1
    10b8:	00700113          	addi	x2,x0,7
    10bc:	00209733          	sll	x14,x1,x2
    10c0:	08000393          	addi	x7,x0,128
    10c4:	00400193          	addi	x3,x0,4
    10c8:	50771663          	bne	x14,x7,15d4 <fail>

000010cc <test_5>:
    10cc:	00100093          	addi	x1,x0,1
    10d0:	00e00113          	addi	x2,x0,14
    10d4:	00209733          	sll	x14,x1,x2
    10d8:	000043b7          	lui	x7,0x4
    10dc:	00500193          	addi	x3,x0,5
    10e0:	4e771a63          	bne	x14,x7,15d4 <fail>

000010e4 <test_6>:
    10e4:	00100093          	addi	x1,x0,1
    10e8:	01f00113          	addi	x2,x0,31
    10ec:	00209733          	sll	x14,x1,x2
    10f0:	800003b7          	lui	x7,0x80000
    10f4:	00600193          	addi	x3,x0,6
    10f8:	4c771e63          	bne	x14,x7,15d4 <fail>

000010fc <test_7>:
    10fc:	fff00093          	addi	x1,x0,-1
    1100:	00000113          	addi	x2,x0,0
    1104:	00209733          	sll	x14,x1,x2
    1108:	fff00393          	addi	x7,x0,-1
    110c:	00700193          	addi	x3,x0,7
    1110:	4c771263          	bne	x14,x7,15d4 <fail>

00001114 <test_8>:
    1114:	fff00093          	addi	x1,x0,-1
    1118:	00100113          	addi	x2,x0,1
    111c:	00209733          	sll	x14,x1,x2
    1120:	ffe00393          	addi	x7,x0,-2
    1124:	00800193          	addi	x3,x0,8
    1128:	4a771663          	bne	x14,x7,15d4 <fail>

0000112c <test_9>:
    112c:	fff00093          	addi	x1,x0,-1
    1130:	00700113          	addi	x2,x0,7
    1134:	00209733          	sll	x14,x1,x2
    1138:	f8000393          	addi	x7,x0,-128
    113c:	00900193          	addi	x3,x0,9
    1140:	48771a63          	bne	x14,x7,15d4 <fail>

00001144 <test_10>:
    1144:	fff00093          	addi	x1,x0,-1
    1148:	00e00113          	addi	x2,x0,14
    114c:	00209733          	sll	x14,x1,x2
    1150:	ffffc3b7          	lui	x7,0xffffc
    1154:	00a00193          	addi	x3,x0,10
    1158:	46771e63          	bne	x14,x7,15d4 <fail>

0000115c <test_11>:
    115c:	fff00093          	addi	x1,x0,-1
    1160:	01f00113          	addi	x2,x0,31
    1164:	00209733          	sll	x14,x1,x2
    1168:	800003b7          	lui	x7,0x80000
    116c:	00b00193          	addi	x3,x0,11
    1170:	46771263          	bne	x14,x7,15d4 <fail>

00001174 <test_12>:
    1174:	212120b7          	lui	x1,0x21212
    1178:	12108093          	addi	x1,x1,289 # 21212121 <_end+0x21210b35>
    117c:	00000113          	addi	x2,x0,0
    1180:	00209733          	sll	x14,x1,x2
    1184:	212123b7          	lui	x7,0x21212
    1188:	12138393          	addi	x7,x7,289 # 21212121 <_end+0x21210b35>
    118c:	00c00193          	addi	x3,x0,12
    1190:	44771263          	bne	x14,x7,15d4 <fail>

00001194 <test_13>:
    1194:	212120b7          	lui	x1,0x21212
    1198:	12108093          	addi	x1,x1,289 # 21212121 <_end+0x21210b35>
    119c:	00100113          	addi	x2,x0,1
    11a0:	00209733          	sll	x14,x1,x2
    11a4:	424243b7          	lui	x7,0x42424
    11a8:	24238393          	addi	x7,x7,578 # 42424242 <_end+0x42422c56>
    11ac:	00d00193          	addi	x3,x0,13
    11b0:	42771263          	bne	x14,x7,15d4 <fail>

000011b4 <test_14>:
    11b4:	212120b7          	lui	x1,0x21212
    11b8:	12108093          	addi	x1,x1,289 # 21212121 <_end+0x21210b35>
    11bc:	00700113          	addi	x2,x0,7
    11c0:	00209733          	sll	x14,x1,x2
    11c4:	909093b7          	lui	x7,0x90909
    11c8:	08038393          	addi	x7,x7,128 # 90909080 <_end+0x90907a94>
    11cc:	00e00193          	addi	x3,x0,14
    11d0:	40771263          	bne	x14,x7,15d4 <fail>

000011d4 <test_15>:
    11d4:	212120b7          	lui	x1,0x21212
    11d8:	12108093          	addi	x1,x1,289 # 21212121 <_end+0x21210b35>
    11dc:	00e00113          	addi	x2,x0,14
    11e0:	00209733          	sll	x14,x1,x2
    11e4:	484843b7          	lui	x7,0x48484
    11e8:	00f00193          	addi	x3,x0,15
    11ec:	3e771463          	bne	x14,x7,15d4 <fail>

000011f0 <test_16>:
    11f0:	212120b7          	lui	x1,0x21212
    11f4:	12108093          	addi	x1,x1,289 # 21212121 <_end+0x21210b35>
    11f8:	01f00113          	addi	x2,x0,31
    11fc:	00209733          	sll	x14,x1,x2
    1200:	800003b7          	lui	x7,0x80000
    1204:	01000193          	addi	x3,x0,16
    1208:	3c771663          	bne	x14,x7,15d4 <fail>

0000120c <test_17>:
    120c:	212120b7          	lui	x1,0x21212
    1210:	12108093          	addi	x1,x1,289 # 21212121 <_end+0x21210b35>
    1214:	fc000113          	addi	x2,x0,-64
    1218:	00209733          	sll	x14,x1,x2
    121c:	212123b7          	lui	x7,0x21212
    1220:	12138393          	addi	x7,x7,289 # 21212121 <_end+0x21210b35>
    1224:	01100193          	addi	x3,x0,17
    1228:	3a771663          	bne	x14,x7,15d4 <fail>

0000122c <test_18>:
    122c:	212120b7          	lui	x1,0x21212
    1230:	12108093          	addi	x1,x1,289 # 21212121 <_end+0x21210b35>
    1234:	fc100113          	addi	x2,x0,-63
    1238:	00209733          	sll	x14,x1,x2
    123c:	424243b7          	lui	x7,0x42424
    1240:	24238393          	addi	x7,x7,578 # 42424242 <_end+0x42422c56>
    1244:	01200193          	addi	x3,x0,18
    1248:	38771663          	bne	x14,x7,15d4 <fail>

0000124c <test_19>:
    124c:	212120b7          	lui	x1,0x21212
    1250:	12108093          	addi	x1,x1,289 # 21212121 <_end+0x21210b35>
    1254:	fc700113          	addi	x2,x0,-57
    1258:	00209733          	sll	x14,x1,x2
    125c:	909093b7          	lui	x7,0x90909
    1260:	08038393          	addi	x7,x7,128 # 90909080 <_end+0x90907a94>
    1264:	01300193          	addi	x3,x0,19
    1268:	36771663          	bne	x14,x7,15d4 <fail>

0000126c <test_20>:
    126c:	212120b7          	lui	x1,0x21212
    1270:	12108093          	addi	x1,x1,289 # 21212121 <_end+0x21210b35>
    1274:	fce00113          	addi	x2,x0,-50
    1278:	00209733          	sll	x14,x1,x2
    127c:	484843b7          	lui	x7,0x48484
    1280:	01400193          	addi	x3,x0,20
    1284:	34771863          	bne	x14,x7,15d4 <fail>

00001288 <test_22>:
    1288:	00100093          	addi	x1,x0,1
    128c:	00700113          	addi	x2,x0,7
    1290:	002090b3          	sll	x1,x1,x2
    1294:	08000393          	addi	x7,x0,128
    1298:	01600193          	addi	x3,x0,22
    129c:	32709c63          	bne	x1,x7,15d4 <fail>

000012a0 <test_23>:
    12a0:	00100093          	addi	x1,x0,1
    12a4:	00e00113          	addi	x2,x0,14
    12a8:	00209133          	sll	x2,x1,x2
    12ac:	000043b7          	lui	x7,0x4
    12b0:	01700193          	addi	x3,x0,23
    12b4:	32711063          	bne	x2,x7,15d4 <fail>

000012b8 <test_24>:
    12b8:	00300093          	addi	x1,x0,3
    12bc:	001090b3          	sll	x1,x1,x1
    12c0:	01800393          	addi	x7,x0,24
    12c4:	01800193          	addi	x3,x0,24
    12c8:	30709663          	bne	x1,x7,15d4 <fail>

000012cc <test_25>:
    12cc:	00000213          	addi	x4,x0,0
    12d0:	00100093          	addi	x1,x0,1
    12d4:	00700113          	addi	x2,x0,7
    12d8:	00209733          	sll	x14,x1,x2
    12dc:	00070313          	addi	x6,x14,0
    12e0:	00120213          	addi	x4,x4,1 # 1 <begin_signature+0x1>
    12e4:	00200293          	addi	x5,x0,2
    12e8:	fe5214e3          	bne	x4,x5,12d0 <test_25+0x4>
    12ec:	08000393          	addi	x7,x0,128
    12f0:	01900193          	addi	x3,x0,25
    12f4:	2e731063          	bne	x6,x7,15d4 <fail>

000012f8 <test_26>:
    12f8:	00000213          	addi	x4,x0,0
    12fc:	00100093          	addi	x1,x0,1
    1300:	00e00113          	addi	x2,x0,14
    1304:	00209733          	sll	x14,x1,x2
    1308:	00000013          	addi	x0,x0,0
    130c:	00070313          	addi	x6,x14,0
    1310:	00120213          	addi	x4,x4,1 # 1 <begin_signature+0x1>
    1314:	00200293          	addi	x5,x0,2
    1318:	fe5212e3          	bne	x4,x5,12fc <test_26+0x4>
    131c:	000043b7          	lui	x7,0x4
    1320:	01a00193          	addi	x3,x0,26
    1324:	2a731863          	bne	x6,x7,15d4 <fail>

00001328 <test_27>:
    1328:	00000213          	addi	x4,x0,0
    132c:	00100093          	addi	x1,x0,1
    1330:	01f00113          	addi	x2,x0,31
    1334:	00209733          	sll	x14,x1,x2
    1338:	00000013          	addi	x0,x0,0
    133c:	00000013          	addi	x0,x0,0
    1340:	00070313          	addi	x6,x14,0
    1344:	00120213          	addi	x4,x4,1 # 1 <begin_signature+0x1>
    1348:	00200293          	addi	x5,x0,2
    134c:	fe5210e3          	bne	x4,x5,132c <test_27+0x4>
    1350:	800003b7          	lui	x7,0x80000
    1354:	01b00193          	addi	x3,x0,27
    1358:	26731e63          	bne	x6,x7,15d4 <fail>

0000135c <test_28>:
    135c:	00000213          	addi	x4,x0,0
    1360:	00100093          	addi	x1,x0,1
    1364:	00700113          	addi	x2,x0,7
    1368:	00209733          	sll	x14,x1,x2
    136c:	00120213          	addi	x4,x4,1 # 1 <begin_signature+0x1>
    1370:	00200293          	addi	x5,x0,2
    1374:	fe5216e3          	bne	x4,x5,1360 <test_28+0x4>
    1378:	08000393          	addi	x7,x0,128
    137c:	01c00193          	addi	x3,x0,28
    1380:	24771a63          	bne	x14,x7,15d4 <fail>

00001384 <test_29>:
    1384:	00000213          	addi	x4,x0,0
    1388:	00100093          	addi	x1,x0,1
    138c:	00e00113          	addi	x2,x0,14
    1390:	00000013          	addi	x0,x0,0
    1394:	00209733          	sll	x14,x1,x2
    1398:	00120213          	addi	x4,x4,1 # 1 <begin_signature+0x1>
    139c:	00200293          	addi	x5,x0,2
    13a0:	fe5214e3          	bne	x4,x5,1388 <test_29+0x4>
    13a4:	000043b7          	lui	x7,0x4
    13a8:	01d00193          	addi	x3,x0,29
    13ac:	22771463          	bne	x14,x7,15d4 <fail>

000013b0 <test_30>:
    13b0:	00000213          	addi	x4,x0,0
    13b4:	00100093          	addi	x1,x0,1
    13b8:	01f00113          	addi	x2,x0,31
    13bc:	00000013          	addi	x0,x0,0
    13c0:	00000013          	addi	x0,x0,0
    13c4:	00209733          	sll	x14,x1,x2
    13c8:	00120213          	addi	x4,x4,1 # 1 <begin_signature+0x1>
    13cc:	00200293          	addi	x5,x0,2
    13d0:	fe5212e3          	bne	x4,x5,13b4 <test_30+0x4>
    13d4:	800003b7          	lui	x7,0x80000
    13d8:	01e00193          	addi	x3,x0,30
    13dc:	1e771c63          	bne	x14,x7,15d4 <fail>

000013e0 <test_31>:
    13e0:	00000213          	addi	x4,x0,0
    13e4:	00100093          	addi	x1,x0,1
    13e8:	00000013          	addi	x0,x0,0
    13ec:	00700113          	addi	x2,x0,7
    13f0:	00209733          	sll	x14,x1,x2
    13f4:	00120213          	addi	x4,x4,1 # 1 <begin_signature+0x1>
    13f8:	00200293          	addi	x5,x0,2
    13fc:	fe5214e3          	bne	x4,x5,13e4 <test_31+0x4>
    1400:	08000393          	addi	x7,x0,128
    1404:	01f00193          	addi	x3,x0,31
    1408:	1c771663          	bne	x14,x7,15d4 <fail>

0000140c <test_32>:
    140c:	00000213          	addi	x4,x0,0
    1410:	00100093          	addi	x1,x0,1
    1414:	00000013          	addi	x0,x0,0
    1418:	00e00113          	addi	x2,x0,14
    141c:	00000013          	addi	x0,x0,0
    1420:	00209733          	sll	x14,x1,x2
    1424:	00120213          	addi	x4,x4,1 # 1 <begin_signature+0x1>
    1428:	00200293          	addi	x5,x0,2
    142c:	fe5212e3          	bne	x4,x5,1410 <test_32+0x4>
    1430:	000043b7          	lui	x7,0x4
    1434:	02000193          	addi	x3,x0,32
    1438:	18771e63          	bne	x14,x7,15d4 <fail>

0000143c <test_33>:
    143c:	00000213          	addi	x4,x0,0
    1440:	00100093          	addi	x1,x0,1
    1444:	00000013          	addi	x0,x0,0
    1448:	00000013          	addi	x0,x0,0
    144c:	01f00113          	addi	x2,x0,31
    1450:	00209733          	sll	x14,x1,x2
    1454:	00120213          	addi	x4,x4,1 # 1 <begin_signature+0x1>
    1458:	00200293          	addi	x5,x0,2
    145c:	fe5212e3          	bne	x4,x5,1440 <test_33+0x4>
    1460:	800003b7          	lui	x7,0x80000
    1464:	02100193          	addi	x3,x0,33
    1468:	16771663          	bne	x14,x7,15d4 <fail>

0000146c <test_34>:
    146c:	00000213          	addi	x4,x0,0
    1470:	00700113          	addi	x2,x0,7
    1474:	00100093          	addi	x1,x0,1
    1478:	00209733          	sll	x14,x1,x2
    147c:	00120213          	addi	x4,x4,1 # 1 <begin_signature+0x1>
    1480:	00200293          	addi	x5,x0,2
    1484:	fe5216e3          	bne	x4,x5,1470 <test_34+0x4>
    1488:	08000393          	addi	x7,x0,128
    148c:	02200193          	addi	x3,x0,34
    1490:	14771263          	bne	x14,x7,15d4 <fail>

00001494 <test_35>:
    1494:	00000213          	addi	x4,x0,0
    1498:	00e00113          	addi	x2,x0,14
    149c:	00100093          	addi	x1,x0,1
    14a0:	00000013          	addi	x0,x0,0
    14a4:	00209733          	sll	x14,x1,x2
    14a8:	00120213          	addi	x4,x4,1 # 1 <begin_signature+0x1>
    14ac:	00200293          	addi	x5,x0,2
    14b0:	fe5214e3          	bne	x4,x5,1498 <test_35+0x4>
    14b4:	000043b7          	lui	x7,0x4
    14b8:	02300193          	addi	x3,x0,35
    14bc:	10771c63          	bne	x14,x7,15d4 <fail>

000014c0 <test_36>:
    14c0:	00000213          	addi	x4,x0,0
    14c4:	01f00113          	addi	x2,x0,31
    14c8:	00100093          	addi	x1,x0,1
    14cc:	00000013          	addi	x0,x0,0
    14d0:	00000013          	addi	x0,x0,0
    14d4:	00209733          	sll	x14,x1,x2
    14d8:	00120213          	addi	x4,x4,1 # 1 <begin_signature+0x1>
    14dc:	00200293          	addi	x5,x0,2
    14e0:	fe5212e3          	bne	x4,x5,14c4 <test_36+0x4>
    14e4:	800003b7          	lui	x7,0x80000
    14e8:	02400193          	addi	x3,x0,36
    14ec:	0e771463          	bne	x14,x7,15d4 <fail>

000014f0 <test_37>:
    14f0:	00000213          	addi	x4,x0,0
    14f4:	00700113          	addi	x2,x0,7
    14f8:	00000013          	addi	x0,x0,0
    14fc:	00100093          	addi	x1,x0,1
    1500:	00209733          	sll	x14,x1,x2
    1504:	00120213          	addi	x4,x4,1 # 1 <begin_signature+0x1>
    1508:	00200293          	addi	x5,x0,2
    150c:	fe5214e3          	bne	x4,x5,14f4 <test_37+0x4>
    1510:	08000393          	addi	x7,x0,128
    1514:	02500193          	addi	x3,x0,37
    1518:	0a771e63          	bne	x14,x7,15d4 <fail>

0000151c <test_38>:
    151c:	00000213          	addi	x4,x0,0
    1520:	00e00113          	addi	x2,x0,14
    1524:	00000013          	addi	x0,x0,0
    1528:	00100093          	addi	x1,x0,1
    152c:	00000013          	addi	x0,x0,0
    1530:	00209733          	sll	x14,x1,x2
    1534:	00120213          	addi	x4,x4,1 # 1 <begin_signature+0x1>
    1538:	00200293          	addi	x5,x0,2
    153c:	fe5212e3          	bne	x4,x5,1520 <test_38+0x4>
    1540:	000043b7          	lui	x7,0x4
    1544:	02600193          	addi	x3,x0,38
    1548:	08771663          	bne	x14,x7,15d4 <fail>

0000154c <test_39>:
    154c:	00000213          	addi	x4,x0,0
    1550:	01f00113          	addi	x2,x0,31
    1554:	00000013          	addi	x0,x0,0
    1558:	00000013          	addi	x0,x0,0
    155c:	00100093          	addi	x1,x0,1
    1560:	00209733          	sll	x14,x1,x2
    1564:	00120213          	addi	x4,x4,1 # 1 <begin_signature+0x1>
    1568:	00200293          	addi	x5,x0,2
    156c:	fe5212e3          	bne	x4,x5,1550 <test_39+0x4>
    1570:	800003b7          	lui	x7,0x80000
    1574:	02700193          	addi	x3,x0,39
    1578:	04771e63          	bne	x14,x7,15d4 <fail>

0000157c <test_40>:
    157c:	00f00093          	addi	x1,x0,15
    1580:	00101133          	sll	x2,x0,x1
    1584:	00000393          	addi	x7,x0,0
    1588:	02800193          	addi	x3,x0,40
    158c:	04711463          	bne	x2,x7,15d4 <fail>

00001590 <test_41>:
    1590:	02000093          	addi	x1,x0,32
    1594:	00009133          	sll	x2,x1,x0
    1598:	02000393          	addi	x7,x0,32
    159c:	02900193          	addi	x3,x0,41
    15a0:	02711a63          	bne	x2,x7,15d4 <fail>

000015a4 <test_42>:
    15a4:	000010b3          	sll	x1,x0,x0
    15a8:	00000393          	addi	x7,x0,0
    15ac:	02a00193          	addi	x3,x0,42
    15b0:	02709263          	bne	x1,x7,15d4 <fail>

000015b4 <test_43>:
    15b4:	40000093          	addi	x1,x0,1024
    15b8:	00001137          	lui	x2,0x1
    15bc:	80010113          	addi	x2,x2,-2048 # 800 <end_signature+0x7f0>
    15c0:	00209033          	sll	x0,x1,x2
    15c4:	00000393          	addi	x7,x0,0
    15c8:	02b00193          	addi	x3,x0,43
    15cc:	00701463          	bne	x0,x7,15d4 <fail>
    15d0:	00301863          	bne	x0,x3,15e0 <pass>

000015d4 <fail>:
    15d4:	00000193          	addi	x3,x0,0
    15d8:	00100413          	addi	x8,x0,1
    15dc:	00008067          	jalr	x0,0(x1)

000015e0 <pass>:
    15e0:	00100193          	addi	x3,x0,1
    15e4:	00100413          	addi	x8,x0,1
    15e8:	00008067          	jalr	x0,0(x1)

000015ec <_end>:
    15ec:	00000013          	addi	x0,x0,0
