
rv32mi/slt.o:     file format elf32-littleriscv


Disassembly of section .text:

00001000 <_start>:
    1000:	00000093          	addi	x1,x0,0
    1004:	00000113          	addi	x2,x0,0
    1008:	00000193          	addi	x3,x0,0
    100c:	00000213          	addi	x4,x0,0
    1010:	00000293          	addi	x5,x0,0
    1014:	00000313          	addi	x6,x0,0
    1018:	00000393          	addi	x7,x0,0
    101c:	00000413          	addi	x8,x0,0
    1020:	00000493          	addi	x9,x0,0
    1024:	00000513          	addi	x10,x0,0
    1028:	00000593          	addi	x11,x0,0
    102c:	00000613          	addi	x12,x0,0
    1030:	00000693          	addi	x13,x0,0
    1034:	00000713          	addi	x14,x0,0
    1038:	00000793          	addi	x15,x0,0
    103c:	00000813          	addi	x16,x0,0
    1040:	00000893          	addi	x17,x0,0
    1044:	00000913          	addi	x18,x0,0
    1048:	00000993          	addi	x19,x0,0
    104c:	00000a13          	addi	x20,x0,0
    1050:	00000a93          	addi	x21,x0,0
    1054:	00000b13          	addi	x22,x0,0
    1058:	00000b93          	addi	x23,x0,0
    105c:	00000c13          	addi	x24,x0,0
    1060:	00000c93          	addi	x25,x0,0
    1064:	00000d13          	addi	x26,x0,0
    1068:	00000d93          	addi	x27,x0,0
    106c:	00000e13          	addi	x28,x0,0
    1070:	00000e93          	addi	x29,x0,0
    1074:	00000f13          	addi	x30,x0,0
    1078:	00000f93          	addi	x31,x0,0
    107c:	00000193          	addi	x3,x0,0
    1080:	00000413          	addi	x8,x0,0

00001084 <test_2>:
    1084:	00000093          	addi	x1,x0,0
    1088:	00000113          	addi	x2,x0,0
    108c:	0020a733          	slt	x14,x1,x2
    1090:	00000393          	addi	x7,x0,0
    1094:	00200193          	addi	x3,x0,2
    1098:	4a771a63          	bne	x14,x7,154c <fail>

0000109c <test_3>:
    109c:	00100093          	addi	x1,x0,1
    10a0:	00100113          	addi	x2,x0,1
    10a4:	0020a733          	slt	x14,x1,x2
    10a8:	00000393          	addi	x7,x0,0
    10ac:	00300193          	addi	x3,x0,3
    10b0:	48771e63          	bne	x14,x7,154c <fail>

000010b4 <test_4>:
    10b4:	00300093          	addi	x1,x0,3
    10b8:	00700113          	addi	x2,x0,7
    10bc:	0020a733          	slt	x14,x1,x2
    10c0:	00100393          	addi	x7,x0,1
    10c4:	00400193          	addi	x3,x0,4
    10c8:	48771263          	bne	x14,x7,154c <fail>

000010cc <test_5>:
    10cc:	00700093          	addi	x1,x0,7
    10d0:	00300113          	addi	x2,x0,3
    10d4:	0020a733          	slt	x14,x1,x2
    10d8:	00000393          	addi	x7,x0,0
    10dc:	00500193          	addi	x3,x0,5
    10e0:	46771663          	bne	x14,x7,154c <fail>

000010e4 <test_6>:
    10e4:	00000093          	addi	x1,x0,0
    10e8:	ffff8137          	lui	x2,0xffff8
    10ec:	0020a733          	slt	x14,x1,x2
    10f0:	00000393          	addi	x7,x0,0
    10f4:	00600193          	addi	x3,x0,6
    10f8:	44771a63          	bne	x14,x7,154c <fail>

000010fc <test_7>:
    10fc:	800000b7          	lui	x1,0x80000
    1100:	00000113          	addi	x2,x0,0
    1104:	0020a733          	slt	x14,x1,x2
    1108:	00100393          	addi	x7,x0,1
    110c:	00700193          	addi	x3,x0,7
    1110:	42771e63          	bne	x14,x7,154c <fail>

00001114 <test_8>:
    1114:	800000b7          	lui	x1,0x80000
    1118:	ffff8137          	lui	x2,0xffff8
    111c:	0020a733          	slt	x14,x1,x2
    1120:	00100393          	addi	x7,x0,1
    1124:	00800193          	addi	x3,x0,8
    1128:	42771263          	bne	x14,x7,154c <fail>

0000112c <test_9>:
    112c:	00000093          	addi	x1,x0,0
    1130:	00008137          	lui	x2,0x8
    1134:	fff10113          	addi	x2,x2,-1 # 7fff <_end+0x6a9b>
    1138:	0020a733          	slt	x14,x1,x2
    113c:	00100393          	addi	x7,x0,1
    1140:	00900193          	addi	x3,x0,9
    1144:	40771463          	bne	x14,x7,154c <fail>

00001148 <test_10>:
    1148:	800000b7          	lui	x1,0x80000
    114c:	fff08093          	addi	x1,x1,-1 # 7fffffff <_end+0x7fffea9b>
    1150:	00000113          	addi	x2,x0,0
    1154:	0020a733          	slt	x14,x1,x2
    1158:	00000393          	addi	x7,x0,0
    115c:	00a00193          	addi	x3,x0,10
    1160:	3e771663          	bne	x14,x7,154c <fail>

00001164 <test_11>:
    1164:	800000b7          	lui	x1,0x80000
    1168:	fff08093          	addi	x1,x1,-1 # 7fffffff <_end+0x7fffea9b>
    116c:	00008137          	lui	x2,0x8
    1170:	fff10113          	addi	x2,x2,-1 # 7fff <_end+0x6a9b>
    1174:	0020a733          	slt	x14,x1,x2
    1178:	00000393          	addi	x7,x0,0
    117c:	00b00193          	addi	x3,x0,11
    1180:	3c771663          	bne	x14,x7,154c <fail>

00001184 <test_12>:
    1184:	800000b7          	lui	x1,0x80000
    1188:	00008137          	lui	x2,0x8
    118c:	fff10113          	addi	x2,x2,-1 # 7fff <_end+0x6a9b>
    1190:	0020a733          	slt	x14,x1,x2
    1194:	00100393          	addi	x7,x0,1
    1198:	00c00193          	addi	x3,x0,12
    119c:	3a771863          	bne	x14,x7,154c <fail>

000011a0 <test_13>:
    11a0:	800000b7          	lui	x1,0x80000
    11a4:	fff08093          	addi	x1,x1,-1 # 7fffffff <_end+0x7fffea9b>
    11a8:	ffff8137          	lui	x2,0xffff8
    11ac:	0020a733          	slt	x14,x1,x2
    11b0:	00000393          	addi	x7,x0,0
    11b4:	00d00193          	addi	x3,x0,13
    11b8:	38771a63          	bne	x14,x7,154c <fail>

000011bc <test_14>:
    11bc:	00000093          	addi	x1,x0,0
    11c0:	fff00113          	addi	x2,x0,-1
    11c4:	0020a733          	slt	x14,x1,x2
    11c8:	00000393          	addi	x7,x0,0
    11cc:	00e00193          	addi	x3,x0,14
    11d0:	36771e63          	bne	x14,x7,154c <fail>

000011d4 <test_15>:
    11d4:	fff00093          	addi	x1,x0,-1
    11d8:	00100113          	addi	x2,x0,1
    11dc:	0020a733          	slt	x14,x1,x2
    11e0:	00100393          	addi	x7,x0,1
    11e4:	00f00193          	addi	x3,x0,15
    11e8:	36771263          	bne	x14,x7,154c <fail>

000011ec <test_16>:
    11ec:	fff00093          	addi	x1,x0,-1
    11f0:	fff00113          	addi	x2,x0,-1
    11f4:	0020a733          	slt	x14,x1,x2
    11f8:	00000393          	addi	x7,x0,0
    11fc:	01000193          	addi	x3,x0,16
    1200:	34771663          	bne	x14,x7,154c <fail>

00001204 <test_17>:
    1204:	00e00093          	addi	x1,x0,14
    1208:	00d00113          	addi	x2,x0,13
    120c:	0020a0b3          	slt	x1,x1,x2
    1210:	00000393          	addi	x7,x0,0
    1214:	01100193          	addi	x3,x0,17
    1218:	32709a63          	bne	x1,x7,154c <fail>

0000121c <test_18>:
    121c:	00b00093          	addi	x1,x0,11
    1220:	00d00113          	addi	x2,x0,13
    1224:	0020a133          	slt	x2,x1,x2
    1228:	00100393          	addi	x7,x0,1
    122c:	01200193          	addi	x3,x0,18
    1230:	30711e63          	bne	x2,x7,154c <fail>

00001234 <test_19>:
    1234:	00d00093          	addi	x1,x0,13
    1238:	0010a0b3          	slt	x1,x1,x1
    123c:	00000393          	addi	x7,x0,0
    1240:	01300193          	addi	x3,x0,19
    1244:	30709463          	bne	x1,x7,154c <fail>

00001248 <test_20>:
    1248:	00000213          	addi	x4,x0,0
    124c:	00b00093          	addi	x1,x0,11
    1250:	00d00113          	addi	x2,x0,13
    1254:	0020a733          	slt	x14,x1,x2
    1258:	00070313          	addi	x6,x14,0
    125c:	00120213          	addi	x4,x4,1 # 1 <begin_signature+0x1>
    1260:	00200293          	addi	x5,x0,2
    1264:	fe5214e3          	bne	x4,x5,124c <test_20+0x4>
    1268:	00100393          	addi	x7,x0,1
    126c:	01400193          	addi	x3,x0,20
    1270:	2c731e63          	bne	x6,x7,154c <fail>

00001274 <test_21>:
    1274:	00000213          	addi	x4,x0,0
    1278:	00e00093          	addi	x1,x0,14
    127c:	00d00113          	addi	x2,x0,13
    1280:	0020a733          	slt	x14,x1,x2
    1284:	00000013          	addi	x0,x0,0
    1288:	00070313          	addi	x6,x14,0
    128c:	00120213          	addi	x4,x4,1 # 1 <begin_signature+0x1>
    1290:	00200293          	addi	x5,x0,2
    1294:	fe5212e3          	bne	x4,x5,1278 <test_21+0x4>
    1298:	00000393          	addi	x7,x0,0
    129c:	01500193          	addi	x3,x0,21
    12a0:	2a731663          	bne	x6,x7,154c <fail>

000012a4 <test_22>:
    12a4:	00000213          	addi	x4,x0,0
    12a8:	00c00093          	addi	x1,x0,12
    12ac:	00d00113          	addi	x2,x0,13
    12b0:	0020a733          	slt	x14,x1,x2
    12b4:	00000013          	addi	x0,x0,0
    12b8:	00000013          	addi	x0,x0,0
    12bc:	00070313          	addi	x6,x14,0
    12c0:	00120213          	addi	x4,x4,1 # 1 <begin_signature+0x1>
    12c4:	00200293          	addi	x5,x0,2
    12c8:	fe5210e3          	bne	x4,x5,12a8 <test_22+0x4>
    12cc:	00100393          	addi	x7,x0,1
    12d0:	01600193          	addi	x3,x0,22
    12d4:	26731c63          	bne	x6,x7,154c <fail>

000012d8 <test_23>:
    12d8:	00000213          	addi	x4,x0,0
    12dc:	00e00093          	addi	x1,x0,14
    12e0:	00d00113          	addi	x2,x0,13
    12e4:	0020a733          	slt	x14,x1,x2
    12e8:	00120213          	addi	x4,x4,1 # 1 <begin_signature+0x1>
    12ec:	00200293          	addi	x5,x0,2
    12f0:	fe5216e3          	bne	x4,x5,12dc <test_23+0x4>
    12f4:	00000393          	addi	x7,x0,0
    12f8:	01700193          	addi	x3,x0,23
    12fc:	24771863          	bne	x14,x7,154c <fail>

00001300 <test_24>:
    1300:	00000213          	addi	x4,x0,0
    1304:	00b00093          	addi	x1,x0,11
    1308:	00d00113          	addi	x2,x0,13
    130c:	00000013          	addi	x0,x0,0
    1310:	0020a733          	slt	x14,x1,x2
    1314:	00120213          	addi	x4,x4,1 # 1 <begin_signature+0x1>
    1318:	00200293          	addi	x5,x0,2
    131c:	fe5214e3          	bne	x4,x5,1304 <test_24+0x4>
    1320:	00100393          	addi	x7,x0,1
    1324:	01800193          	addi	x3,x0,24
    1328:	22771263          	bne	x14,x7,154c <fail>

0000132c <test_25>:
    132c:	00000213          	addi	x4,x0,0
    1330:	00f00093          	addi	x1,x0,15
    1334:	00d00113          	addi	x2,x0,13
    1338:	00000013          	addi	x0,x0,0
    133c:	00000013          	addi	x0,x0,0
    1340:	0020a733          	slt	x14,x1,x2
    1344:	00120213          	addi	x4,x4,1 # 1 <begin_signature+0x1>
    1348:	00200293          	addi	x5,x0,2
    134c:	fe5212e3          	bne	x4,x5,1330 <test_25+0x4>
    1350:	00000393          	addi	x7,x0,0
    1354:	01900193          	addi	x3,x0,25
    1358:	1e771a63          	bne	x14,x7,154c <fail>

0000135c <test_26>:
    135c:	00000213          	addi	x4,x0,0
    1360:	00a00093          	addi	x1,x0,10
    1364:	00000013          	addi	x0,x0,0
    1368:	00d00113          	addi	x2,x0,13
    136c:	0020a733          	slt	x14,x1,x2
    1370:	00120213          	addi	x4,x4,1 # 1 <begin_signature+0x1>
    1374:	00200293          	addi	x5,x0,2
    1378:	fe5214e3          	bne	x4,x5,1360 <test_26+0x4>
    137c:	00100393          	addi	x7,x0,1
    1380:	01a00193          	addi	x3,x0,26
    1384:	1c771463          	bne	x14,x7,154c <fail>

00001388 <test_27>:
    1388:	00000213          	addi	x4,x0,0
    138c:	01000093          	addi	x1,x0,16
    1390:	00000013          	addi	x0,x0,0
    1394:	00d00113          	addi	x2,x0,13
    1398:	00000013          	addi	x0,x0,0
    139c:	0020a733          	slt	x14,x1,x2
    13a0:	00120213          	addi	x4,x4,1 # 1 <begin_signature+0x1>
    13a4:	00200293          	addi	x5,x0,2
    13a8:	fe5212e3          	bne	x4,x5,138c <test_27+0x4>
    13ac:	00000393          	addi	x7,x0,0
    13b0:	01b00193          	addi	x3,x0,27
    13b4:	18771c63          	bne	x14,x7,154c <fail>

000013b8 <test_28>:
    13b8:	00000213          	addi	x4,x0,0
    13bc:	00900093          	addi	x1,x0,9
    13c0:	00000013          	addi	x0,x0,0
    13c4:	00000013          	addi	x0,x0,0
    13c8:	00d00113          	addi	x2,x0,13
    13cc:	0020a733          	slt	x14,x1,x2
    13d0:	00120213          	addi	x4,x4,1 # 1 <begin_signature+0x1>
    13d4:	00200293          	addi	x5,x0,2
    13d8:	fe5212e3          	bne	x4,x5,13bc <test_28+0x4>
    13dc:	00100393          	addi	x7,x0,1
    13e0:	01c00193          	addi	x3,x0,28
    13e4:	16771463          	bne	x14,x7,154c <fail>

000013e8 <test_29>:
    13e8:	00000213          	addi	x4,x0,0
    13ec:	00d00113          	addi	x2,x0,13
    13f0:	01100093          	addi	x1,x0,17
    13f4:	0020a733          	slt	x14,x1,x2
    13f8:	00120213          	addi	x4,x4,1 # 1 <begin_signature+0x1>
    13fc:	00200293          	addi	x5,x0,2
    1400:	fe5216e3          	bne	x4,x5,13ec <test_29+0x4>
    1404:	00000393          	addi	x7,x0,0
    1408:	01d00193          	addi	x3,x0,29
    140c:	14771063          	bne	x14,x7,154c <fail>

00001410 <test_30>:
    1410:	00000213          	addi	x4,x0,0
    1414:	00d00113          	addi	x2,x0,13
    1418:	00800093          	addi	x1,x0,8
    141c:	00000013          	addi	x0,x0,0
    1420:	0020a733          	slt	x14,x1,x2
    1424:	00120213          	addi	x4,x4,1 # 1 <begin_signature+0x1>
    1428:	00200293          	addi	x5,x0,2
    142c:	fe5214e3          	bne	x4,x5,1414 <test_30+0x4>
    1430:	00100393          	addi	x7,x0,1
    1434:	01e00193          	addi	x3,x0,30
    1438:	10771a63          	bne	x14,x7,154c <fail>

0000143c <test_31>:
    143c:	00000213          	addi	x4,x0,0
    1440:	00d00113          	addi	x2,x0,13
    1444:	01200093          	addi	x1,x0,18
    1448:	00000013          	addi	x0,x0,0
    144c:	00000013          	addi	x0,x0,0
    1450:	0020a733          	slt	x14,x1,x2
    1454:	00120213          	addi	x4,x4,1 # 1 <begin_signature+0x1>
    1458:	00200293          	addi	x5,x0,2
    145c:	fe5212e3          	bne	x4,x5,1440 <test_31+0x4>
    1460:	00000393          	addi	x7,x0,0
    1464:	01f00193          	addi	x3,x0,31
    1468:	0e771263          	bne	x14,x7,154c <fail>

0000146c <test_32>:
    146c:	00000213          	addi	x4,x0,0
    1470:	00d00113          	addi	x2,x0,13
    1474:	00000013          	addi	x0,x0,0
    1478:	00700093          	addi	x1,x0,7
    147c:	0020a733          	slt	x14,x1,x2
    1480:	00120213          	addi	x4,x4,1 # 1 <begin_signature+0x1>
    1484:	00200293          	addi	x5,x0,2
    1488:	fe5214e3          	bne	x4,x5,1470 <test_32+0x4>
    148c:	00100393          	addi	x7,x0,1
    1490:	02000193          	addi	x3,x0,32
    1494:	0a771c63          	bne	x14,x7,154c <fail>

00001498 <test_33>:
    1498:	00000213          	addi	x4,x0,0
    149c:	00d00113          	addi	x2,x0,13
    14a0:	00000013          	addi	x0,x0,0
    14a4:	01300093          	addi	x1,x0,19
    14a8:	00000013          	addi	x0,x0,0
    14ac:	0020a733          	slt	x14,x1,x2
    14b0:	00120213          	addi	x4,x4,1 # 1 <begin_signature+0x1>
    14b4:	00200293          	addi	x5,x0,2
    14b8:	fe5212e3          	bne	x4,x5,149c <test_33+0x4>
    14bc:	00000393          	addi	x7,x0,0
    14c0:	02100193          	addi	x3,x0,33
    14c4:	08771463          	bne	x14,x7,154c <fail>

000014c8 <test_34>:
    14c8:	00000213          	addi	x4,x0,0
    14cc:	00d00113          	addi	x2,x0,13
    14d0:	00000013          	addi	x0,x0,0
    14d4:	00000013          	addi	x0,x0,0
    14d8:	00600093          	addi	x1,x0,6
    14dc:	0020a733          	slt	x14,x1,x2
    14e0:	00120213          	addi	x4,x4,1 # 1 <begin_signature+0x1>
    14e4:	00200293          	addi	x5,x0,2
    14e8:	fe5212e3          	bne	x4,x5,14cc <test_34+0x4>
    14ec:	00100393          	addi	x7,x0,1
    14f0:	02200193          	addi	x3,x0,34
    14f4:	04771c63          	bne	x14,x7,154c <fail>

000014f8 <test_35>:
    14f8:	fff00093          	addi	x1,x0,-1
    14fc:	00102133          	slt	x2,x0,x1
    1500:	00000393          	addi	x7,x0,0
    1504:	02300193          	addi	x3,x0,35
    1508:	04711263          	bne	x2,x7,154c <fail>

0000150c <test_36>:
    150c:	fff00093          	addi	x1,x0,-1
    1510:	0000a133          	slt	x2,x1,x0
    1514:	00100393          	addi	x7,x0,1
    1518:	02400193          	addi	x3,x0,36
    151c:	02711863          	bne	x2,x7,154c <fail>

00001520 <test_37>:
    1520:	000020b3          	slt	x1,x0,x0
    1524:	00000393          	addi	x7,x0,0
    1528:	02500193          	addi	x3,x0,37
    152c:	02709063          	bne	x1,x7,154c <fail>

00001530 <test_38>:
    1530:	01000093          	addi	x1,x0,16
    1534:	01e00113          	addi	x2,x0,30
    1538:	0020a033          	slt	x0,x1,x2
    153c:	00000393          	addi	x7,x0,0
    1540:	02600193          	addi	x3,x0,38
    1544:	00701463          	bne	x0,x7,154c <fail>
    1548:	00301863          	bne	x0,x3,1558 <pass>

0000154c <fail>:
    154c:	00000193          	addi	x3,x0,0
    1550:	00100413          	addi	x8,x0,1
    1554:	00008067          	jalr	x0,0(x1)

00001558 <pass>:
    1558:	00100193          	addi	x3,x0,1
    155c:	00100413          	addi	x8,x0,1
    1560:	00008067          	jalr	x0,0(x1)

00001564 <_end>:
    1564:	00000013          	addi	x0,x0,0
