
rv32mi/srl.o:     file format elf32-littleriscv


Disassembly of section .text:

00001000 <_start>:
    1000:	00000093          	addi	x1,x0,0
    1004:	00000113          	addi	x2,x0,0
    1008:	00000193          	addi	x3,x0,0
    100c:	00000213          	addi	x4,x0,0
    1010:	00000293          	addi	x5,x0,0
    1014:	00000313          	addi	x6,x0,0
    1018:	00000393          	addi	x7,x0,0
    101c:	00000413          	addi	x8,x0,0
    1020:	00000493          	addi	x9,x0,0
    1024:	00000513          	addi	x10,x0,0
    1028:	00000593          	addi	x11,x0,0
    102c:	00000613          	addi	x12,x0,0
    1030:	00000693          	addi	x13,x0,0
    1034:	00000713          	addi	x14,x0,0
    1038:	00000793          	addi	x15,x0,0
    103c:	00000813          	addi	x16,x0,0
    1040:	00000893          	addi	x17,x0,0
    1044:	00000913          	addi	x18,x0,0
    1048:	00000993          	addi	x19,x0,0
    104c:	00000a13          	addi	x20,x0,0
    1050:	00000a93          	addi	x21,x0,0
    1054:	00000b13          	addi	x22,x0,0
    1058:	00000b93          	addi	x23,x0,0
    105c:	00000c13          	addi	x24,x0,0
    1060:	00000c93          	addi	x25,x0,0
    1064:	00000d13          	addi	x26,x0,0
    1068:	00000d93          	addi	x27,x0,0
    106c:	00000e13          	addi	x28,x0,0
    1070:	00000e93          	addi	x29,x0,0
    1074:	00000f13          	addi	x30,x0,0
    1078:	00000f93          	addi	x31,x0,0
    107c:	00000193          	addi	x3,x0,0
    1080:	00000413          	addi	x8,x0,0

00001084 <test_2>:
    1084:	800000b7          	lui	x1,0x80000
    1088:	00000113          	addi	x2,x0,0
    108c:	0020d733          	srl	x14,x1,x2
    1090:	800003b7          	lui	x7,0x80000
    1094:	00200193          	addi	x3,x0,2
    1098:	56771863          	bne	x14,x7,1608 <fail>

0000109c <test_3>:
    109c:	800000b7          	lui	x1,0x80000
    10a0:	00100113          	addi	x2,x0,1
    10a4:	0020d733          	srl	x14,x1,x2
    10a8:	400003b7          	lui	x7,0x40000
    10ac:	00300193          	addi	x3,x0,3
    10b0:	54771c63          	bne	x14,x7,1608 <fail>

000010b4 <test_4>:
    10b4:	800000b7          	lui	x1,0x80000
    10b8:	00700113          	addi	x2,x0,7
    10bc:	0020d733          	srl	x14,x1,x2
    10c0:	010003b7          	lui	x7,0x1000
    10c4:	00400193          	addi	x3,x0,4
    10c8:	54771063          	bne	x14,x7,1608 <fail>

000010cc <test_5>:
    10cc:	800000b7          	lui	x1,0x80000
    10d0:	00e00113          	addi	x2,x0,14
    10d4:	0020d733          	srl	x14,x1,x2
    10d8:	000203b7          	lui	x7,0x20
    10dc:	00500193          	addi	x3,x0,5
    10e0:	52771463          	bne	x14,x7,1608 <fail>

000010e4 <test_6>:
    10e4:	800000b7          	lui	x1,0x80000
    10e8:	00108093          	addi	x1,x1,1 # 80000001 <_end+0x7fffe9e1>
    10ec:	01f00113          	addi	x2,x0,31
    10f0:	0020d733          	srl	x14,x1,x2
    10f4:	00100393          	addi	x7,x0,1
    10f8:	00600193          	addi	x3,x0,6
    10fc:	50771663          	bne	x14,x7,1608 <fail>

00001100 <test_7>:
    1100:	fff00093          	addi	x1,x0,-1
    1104:	00000113          	addi	x2,x0,0
    1108:	0020d733          	srl	x14,x1,x2
    110c:	fff00393          	addi	x7,x0,-1
    1110:	00700193          	addi	x3,x0,7
    1114:	4e771a63          	bne	x14,x7,1608 <fail>

00001118 <test_8>:
    1118:	fff00093          	addi	x1,x0,-1
    111c:	00100113          	addi	x2,x0,1
    1120:	0020d733          	srl	x14,x1,x2
    1124:	800003b7          	lui	x7,0x80000
    1128:	fff38393          	addi	x7,x7,-1 # 7fffffff <_end+0x7fffe9df>
    112c:	00800193          	addi	x3,x0,8
    1130:	4c771c63          	bne	x14,x7,1608 <fail>

00001134 <test_9>:
    1134:	fff00093          	addi	x1,x0,-1
    1138:	00700113          	addi	x2,x0,7
    113c:	0020d733          	srl	x14,x1,x2
    1140:	020003b7          	lui	x7,0x2000
    1144:	fff38393          	addi	x7,x7,-1 # 1ffffff <_end+0x1ffe9df>
    1148:	00900193          	addi	x3,x0,9
    114c:	4a771e63          	bne	x14,x7,1608 <fail>

00001150 <test_10>:
    1150:	fff00093          	addi	x1,x0,-1
    1154:	00e00113          	addi	x2,x0,14
    1158:	0020d733          	srl	x14,x1,x2
    115c:	000403b7          	lui	x7,0x40
    1160:	fff38393          	addi	x7,x7,-1 # 3ffff <_end+0x3e9df>
    1164:	00a00193          	addi	x3,x0,10
    1168:	4a771063          	bne	x14,x7,1608 <fail>

0000116c <test_11>:
    116c:	fff00093          	addi	x1,x0,-1
    1170:	01f00113          	addi	x2,x0,31
    1174:	0020d733          	srl	x14,x1,x2
    1178:	00100393          	addi	x7,x0,1
    117c:	00b00193          	addi	x3,x0,11
    1180:	48771463          	bne	x14,x7,1608 <fail>

00001184 <test_12>:
    1184:	212120b7          	lui	x1,0x21212
    1188:	12108093          	addi	x1,x1,289 # 21212121 <_end+0x21210b01>
    118c:	00000113          	addi	x2,x0,0
    1190:	0020d733          	srl	x14,x1,x2
    1194:	212123b7          	lui	x7,0x21212
    1198:	12138393          	addi	x7,x7,289 # 21212121 <_end+0x21210b01>
    119c:	00c00193          	addi	x3,x0,12
    11a0:	46771463          	bne	x14,x7,1608 <fail>

000011a4 <test_13>:
    11a4:	212120b7          	lui	x1,0x21212
    11a8:	12108093          	addi	x1,x1,289 # 21212121 <_end+0x21210b01>
    11ac:	00100113          	addi	x2,x0,1
    11b0:	0020d733          	srl	x14,x1,x2
    11b4:	109093b7          	lui	x7,0x10909
    11b8:	09038393          	addi	x7,x7,144 # 10909090 <_end+0x10907a70>
    11bc:	00d00193          	addi	x3,x0,13
    11c0:	44771463          	bne	x14,x7,1608 <fail>

000011c4 <test_14>:
    11c4:	212120b7          	lui	x1,0x21212
    11c8:	12108093          	addi	x1,x1,289 # 21212121 <_end+0x21210b01>
    11cc:	00700113          	addi	x2,x0,7
    11d0:	0020d733          	srl	x14,x1,x2
    11d4:	004243b7          	lui	x7,0x424
    11d8:	24238393          	addi	x7,x7,578 # 424242 <_end+0x422c22>
    11dc:	00e00193          	addi	x3,x0,14
    11e0:	42771463          	bne	x14,x7,1608 <fail>

000011e4 <test_15>:
    11e4:	212120b7          	lui	x1,0x21212
    11e8:	12108093          	addi	x1,x1,289 # 21212121 <_end+0x21210b01>
    11ec:	00e00113          	addi	x2,x0,14
    11f0:	0020d733          	srl	x14,x1,x2
    11f4:	000083b7          	lui	x7,0x8
    11f8:	48438393          	addi	x7,x7,1156 # 8484 <_end+0x6e64>
    11fc:	00f00193          	addi	x3,x0,15
    1200:	40771463          	bne	x14,x7,1608 <fail>

00001204 <test_16>:
    1204:	212120b7          	lui	x1,0x21212
    1208:	12108093          	addi	x1,x1,289 # 21212121 <_end+0x21210b01>
    120c:	01f00113          	addi	x2,x0,31
    1210:	0020d733          	srl	x14,x1,x2
    1214:	00000393          	addi	x7,x0,0
    1218:	01000193          	addi	x3,x0,16
    121c:	3e771663          	bne	x14,x7,1608 <fail>

00001220 <test_17>:
    1220:	212120b7          	lui	x1,0x21212
    1224:	12108093          	addi	x1,x1,289 # 21212121 <_end+0x21210b01>
    1228:	fc000113          	addi	x2,x0,-64
    122c:	0020d733          	srl	x14,x1,x2
    1230:	212123b7          	lui	x7,0x21212
    1234:	12138393          	addi	x7,x7,289 # 21212121 <_end+0x21210b01>
    1238:	01100193          	addi	x3,x0,17
    123c:	3c771663          	bne	x14,x7,1608 <fail>

00001240 <test_18>:
    1240:	212120b7          	lui	x1,0x21212
    1244:	12108093          	addi	x1,x1,289 # 21212121 <_end+0x21210b01>
    1248:	fc100113          	addi	x2,x0,-63
    124c:	0020d733          	srl	x14,x1,x2
    1250:	109093b7          	lui	x7,0x10909
    1254:	09038393          	addi	x7,x7,144 # 10909090 <_end+0x10907a70>
    1258:	01200193          	addi	x3,x0,18
    125c:	3a771663          	bne	x14,x7,1608 <fail>

00001260 <test_19>:
    1260:	212120b7          	lui	x1,0x21212
    1264:	12108093          	addi	x1,x1,289 # 21212121 <_end+0x21210b01>
    1268:	fc700113          	addi	x2,x0,-57
    126c:	0020d733          	srl	x14,x1,x2
    1270:	004243b7          	lui	x7,0x424
    1274:	24238393          	addi	x7,x7,578 # 424242 <_end+0x422c22>
    1278:	01300193          	addi	x3,x0,19
    127c:	38771663          	bne	x14,x7,1608 <fail>

00001280 <test_20>:
    1280:	212120b7          	lui	x1,0x21212
    1284:	12108093          	addi	x1,x1,289 # 21212121 <_end+0x21210b01>
    1288:	fce00113          	addi	x2,x0,-50
    128c:	0020d733          	srl	x14,x1,x2
    1290:	000083b7          	lui	x7,0x8
    1294:	48438393          	addi	x7,x7,1156 # 8484 <_end+0x6e64>
    1298:	01400193          	addi	x3,x0,20
    129c:	36771663          	bne	x14,x7,1608 <fail>

000012a0 <test_21>:
    12a0:	212120b7          	lui	x1,0x21212
    12a4:	12108093          	addi	x1,x1,289 # 21212121 <_end+0x21210b01>
    12a8:	fff00113          	addi	x2,x0,-1
    12ac:	0020d733          	srl	x14,x1,x2
    12b0:	00000393          	addi	x7,x0,0
    12b4:	01500193          	addi	x3,x0,21
    12b8:	34771863          	bne	x14,x7,1608 <fail>

000012bc <test_22>:
    12bc:	800000b7          	lui	x1,0x80000
    12c0:	00700113          	addi	x2,x0,7
    12c4:	0020d0b3          	srl	x1,x1,x2
    12c8:	010003b7          	lui	x7,0x1000
    12cc:	01600193          	addi	x3,x0,22
    12d0:	32709c63          	bne	x1,x7,1608 <fail>

000012d4 <test_23>:
    12d4:	800000b7          	lui	x1,0x80000
    12d8:	00e00113          	addi	x2,x0,14
    12dc:	0020d133          	srl	x2,x1,x2
    12e0:	000203b7          	lui	x7,0x20
    12e4:	01700193          	addi	x3,x0,23
    12e8:	32711063          	bne	x2,x7,1608 <fail>

000012ec <test_24>:
    12ec:	00700093          	addi	x1,x0,7
    12f0:	0010d0b3          	srl	x1,x1,x1
    12f4:	00000393          	addi	x7,x0,0
    12f8:	01800193          	addi	x3,x0,24
    12fc:	30709663          	bne	x1,x7,1608 <fail>

00001300 <test_25>:
    1300:	00000213          	addi	x4,x0,0
    1304:	800000b7          	lui	x1,0x80000
    1308:	00700113          	addi	x2,x0,7
    130c:	0020d733          	srl	x14,x1,x2
    1310:	00070313          	addi	x6,x14,0
    1314:	00120213          	addi	x4,x4,1 # 1 <begin_signature+0x1>
    1318:	00200293          	addi	x5,x0,2
    131c:	fe5214e3          	bne	x4,x5,1304 <test_25+0x4>
    1320:	010003b7          	lui	x7,0x1000
    1324:	01900193          	addi	x3,x0,25
    1328:	2e731063          	bne	x6,x7,1608 <fail>

0000132c <test_26>:
    132c:	00000213          	addi	x4,x0,0
    1330:	800000b7          	lui	x1,0x80000
    1334:	00e00113          	addi	x2,x0,14
    1338:	0020d733          	srl	x14,x1,x2
    133c:	00000013          	addi	x0,x0,0
    1340:	00070313          	addi	x6,x14,0
    1344:	00120213          	addi	x4,x4,1 # 1 <begin_signature+0x1>
    1348:	00200293          	addi	x5,x0,2
    134c:	fe5212e3          	bne	x4,x5,1330 <test_26+0x4>
    1350:	000203b7          	lui	x7,0x20
    1354:	01a00193          	addi	x3,x0,26
    1358:	2a731863          	bne	x6,x7,1608 <fail>

0000135c <test_27>:
    135c:	00000213          	addi	x4,x0,0
    1360:	800000b7          	lui	x1,0x80000
    1364:	01f00113          	addi	x2,x0,31
    1368:	0020d733          	srl	x14,x1,x2
    136c:	00000013          	addi	x0,x0,0
    1370:	00000013          	addi	x0,x0,0
    1374:	00070313          	addi	x6,x14,0
    1378:	00120213          	addi	x4,x4,1 # 1 <begin_signature+0x1>
    137c:	00200293          	addi	x5,x0,2
    1380:	fe5210e3          	bne	x4,x5,1360 <test_27+0x4>
    1384:	00100393          	addi	x7,x0,1
    1388:	01b00193          	addi	x3,x0,27
    138c:	26731e63          	bne	x6,x7,1608 <fail>

00001390 <test_28>:
    1390:	00000213          	addi	x4,x0,0
    1394:	800000b7          	lui	x1,0x80000
    1398:	00700113          	addi	x2,x0,7
    139c:	0020d733          	srl	x14,x1,x2
    13a0:	00120213          	addi	x4,x4,1 # 1 <begin_signature+0x1>
    13a4:	00200293          	addi	x5,x0,2
    13a8:	fe5216e3          	bne	x4,x5,1394 <test_28+0x4>
    13ac:	010003b7          	lui	x7,0x1000
    13b0:	01c00193          	addi	x3,x0,28
    13b4:	24771a63          	bne	x14,x7,1608 <fail>

000013b8 <test_29>:
    13b8:	00000213          	addi	x4,x0,0
    13bc:	800000b7          	lui	x1,0x80000
    13c0:	00e00113          	addi	x2,x0,14
    13c4:	00000013          	addi	x0,x0,0
    13c8:	0020d733          	srl	x14,x1,x2
    13cc:	00120213          	addi	x4,x4,1 # 1 <begin_signature+0x1>
    13d0:	00200293          	addi	x5,x0,2
    13d4:	fe5214e3          	bne	x4,x5,13bc <test_29+0x4>
    13d8:	000203b7          	lui	x7,0x20
    13dc:	01d00193          	addi	x3,x0,29
    13e0:	22771463          	bne	x14,x7,1608 <fail>

000013e4 <test_30>:
    13e4:	00000213          	addi	x4,x0,0
    13e8:	800000b7          	lui	x1,0x80000
    13ec:	01f00113          	addi	x2,x0,31
    13f0:	00000013          	addi	x0,x0,0
    13f4:	00000013          	addi	x0,x0,0
    13f8:	0020d733          	srl	x14,x1,x2
    13fc:	00120213          	addi	x4,x4,1 # 1 <begin_signature+0x1>
    1400:	00200293          	addi	x5,x0,2
    1404:	fe5212e3          	bne	x4,x5,13e8 <test_30+0x4>
    1408:	00100393          	addi	x7,x0,1
    140c:	01e00193          	addi	x3,x0,30
    1410:	1e771c63          	bne	x14,x7,1608 <fail>

00001414 <test_31>:
    1414:	00000213          	addi	x4,x0,0
    1418:	800000b7          	lui	x1,0x80000
    141c:	00000013          	addi	x0,x0,0
    1420:	00700113          	addi	x2,x0,7
    1424:	0020d733          	srl	x14,x1,x2
    1428:	00120213          	addi	x4,x4,1 # 1 <begin_signature+0x1>
    142c:	00200293          	addi	x5,x0,2
    1430:	fe5214e3          	bne	x4,x5,1418 <test_31+0x4>
    1434:	010003b7          	lui	x7,0x1000
    1438:	01f00193          	addi	x3,x0,31
    143c:	1c771663          	bne	x14,x7,1608 <fail>

00001440 <test_32>:
    1440:	00000213          	addi	x4,x0,0
    1444:	800000b7          	lui	x1,0x80000
    1448:	00000013          	addi	x0,x0,0
    144c:	00e00113          	addi	x2,x0,14
    1450:	00000013          	addi	x0,x0,0
    1454:	0020d733          	srl	x14,x1,x2
    1458:	00120213          	addi	x4,x4,1 # 1 <begin_signature+0x1>
    145c:	00200293          	addi	x5,x0,2
    1460:	fe5212e3          	bne	x4,x5,1444 <test_32+0x4>
    1464:	000203b7          	lui	x7,0x20
    1468:	02000193          	addi	x3,x0,32
    146c:	18771e63          	bne	x14,x7,1608 <fail>

00001470 <test_33>:
    1470:	00000213          	addi	x4,x0,0
    1474:	800000b7          	lui	x1,0x80000
    1478:	00000013          	addi	x0,x0,0
    147c:	00000013          	addi	x0,x0,0
    1480:	01f00113          	addi	x2,x0,31
    1484:	0020d733          	srl	x14,x1,x2
    1488:	00120213          	addi	x4,x4,1 # 1 <begin_signature+0x1>
    148c:	00200293          	addi	x5,x0,2
    1490:	fe5212e3          	bne	x4,x5,1474 <test_33+0x4>
    1494:	00100393          	addi	x7,x0,1
    1498:	02100193          	addi	x3,x0,33
    149c:	16771663          	bne	x14,x7,1608 <fail>

000014a0 <test_34>:
    14a0:	00000213          	addi	x4,x0,0
    14a4:	00700113          	addi	x2,x0,7
    14a8:	800000b7          	lui	x1,0x80000
    14ac:	0020d733          	srl	x14,x1,x2
    14b0:	00120213          	addi	x4,x4,1 # 1 <begin_signature+0x1>
    14b4:	00200293          	addi	x5,x0,2
    14b8:	fe5216e3          	bne	x4,x5,14a4 <test_34+0x4>
    14bc:	010003b7          	lui	x7,0x1000
    14c0:	02200193          	addi	x3,x0,34
    14c4:	14771263          	bne	x14,x7,1608 <fail>

000014c8 <test_35>:
    14c8:	00000213          	addi	x4,x0,0
    14cc:	00e00113          	addi	x2,x0,14
    14d0:	800000b7          	lui	x1,0x80000
    14d4:	00000013          	addi	x0,x0,0
    14d8:	0020d733          	srl	x14,x1,x2
    14dc:	00120213          	addi	x4,x4,1 # 1 <begin_signature+0x1>
    14e0:	00200293          	addi	x5,x0,2
    14e4:	fe5214e3          	bne	x4,x5,14cc <test_35+0x4>
    14e8:	000203b7          	lui	x7,0x20
    14ec:	02300193          	addi	x3,x0,35
    14f0:	10771c63          	bne	x14,x7,1608 <fail>

000014f4 <test_36>:
    14f4:	00000213          	addi	x4,x0,0
    14f8:	01f00113          	addi	x2,x0,31
    14fc:	800000b7          	lui	x1,0x80000
    1500:	00000013          	addi	x0,x0,0
    1504:	00000013          	addi	x0,x0,0
    1508:	0020d733          	srl	x14,x1,x2
    150c:	00120213          	addi	x4,x4,1 # 1 <begin_signature+0x1>
    1510:	00200293          	addi	x5,x0,2
    1514:	fe5212e3          	bne	x4,x5,14f8 <test_36+0x4>
    1518:	00100393          	addi	x7,x0,1
    151c:	02400193          	addi	x3,x0,36
    1520:	0e771463          	bne	x14,x7,1608 <fail>

00001524 <test_37>:
    1524:	00000213          	addi	x4,x0,0
    1528:	00700113          	addi	x2,x0,7
    152c:	00000013          	addi	x0,x0,0
    1530:	800000b7          	lui	x1,0x80000
    1534:	0020d733          	srl	x14,x1,x2
    1538:	00120213          	addi	x4,x4,1 # 1 <begin_signature+0x1>
    153c:	00200293          	addi	x5,x0,2
    1540:	fe5214e3          	bne	x4,x5,1528 <test_37+0x4>
    1544:	010003b7          	lui	x7,0x1000
    1548:	02500193          	addi	x3,x0,37
    154c:	0a771e63          	bne	x14,x7,1608 <fail>

00001550 <test_38>:
    1550:	00000213          	addi	x4,x0,0
    1554:	00e00113          	addi	x2,x0,14
    1558:	00000013          	addi	x0,x0,0
    155c:	800000b7          	lui	x1,0x80000
    1560:	00000013          	addi	x0,x0,0
    1564:	0020d733          	srl	x14,x1,x2
    1568:	00120213          	addi	x4,x4,1 # 1 <begin_signature+0x1>
    156c:	00200293          	addi	x5,x0,2
    1570:	fe5212e3          	bne	x4,x5,1554 <test_38+0x4>
    1574:	000203b7          	lui	x7,0x20
    1578:	02600193          	addi	x3,x0,38
    157c:	08771663          	bne	x14,x7,1608 <fail>

00001580 <test_39>:
    1580:	00000213          	addi	x4,x0,0
    1584:	01f00113          	addi	x2,x0,31
    1588:	00000013          	addi	x0,x0,0
    158c:	00000013          	addi	x0,x0,0
    1590:	800000b7          	lui	x1,0x80000
    1594:	0020d733          	srl	x14,x1,x2
    1598:	00120213          	addi	x4,x4,1 # 1 <begin_signature+0x1>
    159c:	00200293          	addi	x5,x0,2
    15a0:	fe5212e3          	bne	x4,x5,1584 <test_39+0x4>
    15a4:	00100393          	addi	x7,x0,1
    15a8:	02700193          	addi	x3,x0,39
    15ac:	04771e63          	bne	x14,x7,1608 <fail>

000015b0 <test_40>:
    15b0:	00f00093          	addi	x1,x0,15
    15b4:	00105133          	srl	x2,x0,x1
    15b8:	00000393          	addi	x7,x0,0
    15bc:	02800193          	addi	x3,x0,40
    15c0:	04711463          	bne	x2,x7,1608 <fail>

000015c4 <test_41>:
    15c4:	02000093          	addi	x1,x0,32
    15c8:	0000d133          	srl	x2,x1,x0
    15cc:	02000393          	addi	x7,x0,32
    15d0:	02900193          	addi	x3,x0,41
    15d4:	02711a63          	bne	x2,x7,1608 <fail>

000015d8 <test_42>:
    15d8:	000050b3          	srl	x1,x0,x0
    15dc:	00000393          	addi	x7,x0,0
    15e0:	02a00193          	addi	x3,x0,42
    15e4:	02709263          	bne	x1,x7,1608 <fail>

000015e8 <test_43>:
    15e8:	40000093          	addi	x1,x0,1024
    15ec:	00001137          	lui	x2,0x1
    15f0:	80010113          	addi	x2,x2,-2048 # 800 <end_signature+0x7f0>
    15f4:	0020d033          	srl	x0,x1,x2
    15f8:	00000393          	addi	x7,x0,0
    15fc:	02b00193          	addi	x3,x0,43
    1600:	00701463          	bne	x0,x7,1608 <fail>
    1604:	00301863          	bne	x0,x3,1614 <pass>

00001608 <fail>:
    1608:	00000193          	addi	x3,x0,0
    160c:	00100413          	addi	x8,x0,1
    1610:	00008067          	jalr	x0,0(x1) # 80000000 <_end+0x7fffe9e0>

00001614 <pass>:
    1614:	00100193          	addi	x3,x0,1
    1618:	00100413          	addi	x8,x0,1
    161c:	00008067          	jalr	x0,0(x1)

00001620 <_end>:
    1620:	00000013          	addi	x0,x0,0
